
main.elf:     file format elf32-avr


Disassembly of section .text:

00000000 <__ctors_end>:
   0:	0c 94 f3 02 	jmp	0x5e6	; 0x5e6 <main>
   4:	0c 94 5a 03 	jmp	0x6b4	; 0x6b4 <return_from_interrupt>
   8:	0c 94 5a 03 	jmp	0x6b4	; 0x6b4 <return_from_interrupt>
   c:	0c 94 5a 03 	jmp	0x6b4	; 0x6b4 <return_from_interrupt>
  10:	0c 94 5a 03 	jmp	0x6b4	; 0x6b4 <return_from_interrupt>
  14:	0c 94 5a 03 	jmp	0x6b4	; 0x6b4 <return_from_interrupt>
  18:	0c 94 ed 02 	jmp	0x5da	; 0x5da <bmp_085_watchdog_timeout_iterrupt>
  1c:	0c 94 5a 03 	jmp	0x6b4	; 0x6b4 <return_from_interrupt>
  20:	0c 94 5a 03 	jmp	0x6b4	; 0x6b4 <return_from_interrupt>
  24:	0c 94 5a 03 	jmp	0x6b4	; 0x6b4 <return_from_interrupt>
  28:	0c 94 5a 03 	jmp	0x6b4	; 0x6b4 <return_from_interrupt>
  2c:	0c 94 5a 03 	jmp	0x6b4	; 0x6b4 <return_from_interrupt>
  30:	0c 94 5a 03 	jmp	0x6b4	; 0x6b4 <return_from_interrupt>
  34:	0c 94 5a 03 	jmp	0x6b4	; 0x6b4 <return_from_interrupt>
  38:	0c 94 5a 03 	jmp	0x6b4	; 0x6b4 <return_from_interrupt>
  3c:	0c 94 5a 03 	jmp	0x6b4	; 0x6b4 <return_from_interrupt>
  40:	0c 94 5a 03 	jmp	0x6b4	; 0x6b4 <return_from_interrupt>
  44:	0c 94 5a 03 	jmp	0x6b4	; 0x6b4 <return_from_interrupt>
  48:	0c 94 5a 03 	jmp	0x6b4	; 0x6b4 <return_from_interrupt>
  4c:	0c 94 5a 03 	jmp	0x6b4	; 0x6b4 <return_from_interrupt>
  50:	0c 94 5a 03 	jmp	0x6b4	; 0x6b4 <return_from_interrupt>
  54:	0c 94 5a 03 	jmp	0x6b4	; 0x6b4 <return_from_interrupt>
  58:	0c 94 5a 03 	jmp	0x6b4	; 0x6b4 <return_from_interrupt>
  5c:	0c 94 5a 03 	jmp	0x6b4	; 0x6b4 <return_from_interrupt>
  60:	0c 94 5a 03 	jmp	0x6b4	; 0x6b4 <return_from_interrupt>
  64:	0c 94 5a 03 	jmp	0x6b4	; 0x6b4 <return_from_interrupt>

00000068 <watchdog_init_interrupt_mode>:
  68:	0f 93       	push	r16
  6a:	08 e5       	ldi	r16, 0x58	; 88
  6c:	00 93 60 00 	sts	0x0060, r16	; 0x800060 <__EEPROM_REGION_LENGTH__+0x7f0060>
  70:	07 e4       	ldi	r16, 0x47	; 71
  72:	00 93 60 00 	sts	0x0060, r16	; 0x800060 <__EEPROM_REGION_LENGTH__+0x7f0060>
  76:	0f 91       	pop	r16
  78:	08 95       	ret

0000007a <watchdog_init_reset_mode>:
  7a:	0f 93       	push	r16
  7c:	08 e5       	ldi	r16, 0x58	; 88
  7e:	00 93 60 00 	sts	0x0060, r16	; 0x800060 <__EEPROM_REGION_LENGTH__+0x7f0060>
  82:	08 e0       	ldi	r16, 0x08	; 8
  84:	00 93 60 00 	sts	0x0060, r16	; 0x800060 <__EEPROM_REGION_LENGTH__+0x7f0060>
  88:	0f 91       	pop	r16
  8a:	08 95       	ret

0000008c <watchdog_interrupt_disable>:
  8c:	0f 93       	push	r16
  8e:	00 91 60 00 	lds	r16, 0x0060	; 0x800060 <__EEPROM_REGION_LENGTH__+0x7f0060>
  92:	0f 7b       	andi	r16, 0xBF	; 191
  94:	00 93 60 00 	sts	0x0060, r16	; 0x800060 <__EEPROM_REGION_LENGTH__+0x7f0060>
  98:	0f 91       	pop	r16
  9a:	08 95       	ret

0000009c <twi_init_twcr>:
  9c:	0f 93       	push	r16
  9e:	00 91 bb 00 	lds	r16, 0x00BB	; 0x8000bb <__EEPROM_REGION_LENGTH__+0x7f00bb>
  a2:	0f 3f       	cpi	r16, 0xFF	; 255
  a4:	19 f0       	breq	.+6      	; 0xac <_twi_init_twcr_continue>
  a6:	0f ef       	ldi	r16, 0xFF	; 255
  a8:	00 93 bb 00 	sts	0x00BB, r16	; 0x8000bb <__EEPROM_REGION_LENGTH__+0x7f00bb>

000000ac <_twi_init_twcr_continue>:
  ac:	80 93 00 01 	sts	0x0100, r24	; 0x800100 <twi_twcr_init_value>
  b0:	80 93 bc 00 	sts	0x00BC, r24	; 0x8000bc <__EEPROM_REGION_LENGTH__+0x7f00bc>
  b4:	4c d0       	rcall	.+152    	; 0x14e <twi_clear_twsr_prescaler>
  b6:	45 d0       	rcall	.+138    	; 0x142 <twi_set_pullup_registers>
  b8:	0f 91       	pop	r16
  ba:	08 95       	ret

000000bc <twi_send_start_condition>:
  bc:	0f 93       	push	r16
  be:	00 91 00 01 	lds	r16, 0x0100	; 0x800100 <twi_twcr_init_value>
  c2:	04 6a       	ori	r16, 0xA4	; 164
  c4:	00 93 bc 00 	sts	0x00BC, r16	; 0x8000bc <__EEPROM_REGION_LENGTH__+0x7f00bc>

000000c8 <_twi_send_start_condition_wait>:
  c8:	00 91 bc 00 	lds	r16, 0x00BC	; 0x8000bc <__EEPROM_REGION_LENGTH__+0x7f00bc>
  cc:	07 ff       	sbrs	r16, 7
  ce:	fc cf       	rjmp	.-8      	; 0xc8 <_twi_send_start_condition_wait>
  d0:	0f 91       	pop	r16
  d2:	08 95       	ret

000000d4 <twi_send_stop_condition>:
  d4:	0f 93       	push	r16
  d6:	00 91 bc 00 	lds	r16, 0x00BC	; 0x8000bc <__EEPROM_REGION_LENGTH__+0x7f00bc>
  da:	00 61       	ori	r16, 0x10	; 16
  dc:	00 93 bc 00 	sts	0x00BC, r16	; 0x8000bc <__EEPROM_REGION_LENGTH__+0x7f00bc>

000000e0 <_twi_send_stop_condition_wait>:
  e0:	00 91 bc 00 	lds	r16, 0x00BC	; 0x8000bc <__EEPROM_REGION_LENGTH__+0x7f00bc>
  e4:	04 fd       	sbrc	r16, 4
  e6:	fc cf       	rjmp	.-8      	; 0xe0 <_twi_send_stop_condition_wait>
  e8:	0f 91       	pop	r16
  ea:	08 95       	ret

000000ec <twi_clear_start_condition>:
  ec:	0f 93       	push	r16
  ee:	00 91 bc 00 	lds	r16, 0x00BC	; 0x8000bc <__EEPROM_REGION_LENGTH__+0x7f00bc>
  f2:	0f 7d       	andi	r16, 0xDF	; 223
  f4:	00 93 bc 00 	sts	0x00BC, r16	; 0x8000bc <__EEPROM_REGION_LENGTH__+0x7f00bc>
  f8:	0f 91       	pop	r16
  fa:	08 95       	ret

000000fc <twi_set_twbr_atmega328p_prescaler>:
  fc:	80 93 b8 00 	sts	0x00B8, r24	; 0x8000b8 <__EEPROM_REGION_LENGTH__+0x7f00b8>
 100:	08 95       	ret

00000102 <twi_send_byte>:
 102:	0f 93       	push	r16
 104:	80 93 bb 00 	sts	0x00BB, r24	; 0x8000bb <__EEPROM_REGION_LENGTH__+0x7f00bb>
 108:	f1 df       	rcall	.-30     	; 0xec <twi_clear_start_condition>

0000010a <_twi_send_byte_wait>:
 10a:	00 91 bc 00 	lds	r16, 0x00BC	; 0x8000bc <__EEPROM_REGION_LENGTH__+0x7f00bc>
 10e:	07 ff       	sbrs	r16, 7
 110:	fc cf       	rjmp	.-8      	; 0x10a <_twi_send_byte_wait>
 112:	0f 91       	pop	r16
 114:	08 95       	ret

00000116 <twi_read_data>:
 116:	0f 93       	push	r16
 118:	0c d0       	rcall	.+24     	; 0x132 <twi_twint_clear>

0000011a <_twi_read_data_wait>:
 11a:	00 91 bc 00 	lds	r16, 0x00BC	; 0x8000bc <__EEPROM_REGION_LENGTH__+0x7f00bc>
 11e:	07 ff       	sbrs	r16, 7
 120:	fc cf       	rjmp	.-8      	; 0x11a <_twi_read_data_wait>
 122:	80 91 bb 00 	lds	r24, 0x00BB	; 0x8000bb <__EEPROM_REGION_LENGTH__+0x7f00bb>
 126:	0f 91       	pop	r16
 128:	08 95       	ret

0000012a <twi_get_status>:
 12a:	80 91 b9 00 	lds	r24, 0x00B9	; 0x8000b9 <__EEPROM_REGION_LENGTH__+0x7f00b9>
 12e:	88 7f       	andi	r24, 0xF8	; 248
 130:	08 95       	ret

00000132 <twi_twint_clear>:
 132:	0f 93       	push	r16
 134:	00 91 bc 00 	lds	r16, 0x00BC	; 0x8000bc <__EEPROM_REGION_LENGTH__+0x7f00bc>
 138:	0f 77       	andi	r16, 0x7F	; 127
 13a:	00 93 bc 00 	sts	0x00BC, r16	; 0x8000bc <__EEPROM_REGION_LENGTH__+0x7f00bc>
 13e:	0f 91       	pop	r16
 140:	08 95       	ret

00000142 <twi_set_pullup_registers>:
 142:	0f 93       	push	r16
 144:	06 b1       	in	r16, 0x06	; 6
 146:	00 63       	ori	r16, 0x30	; 48
 148:	08 b9       	out	0x08, r16	; 8
 14a:	0f 91       	pop	r16
 14c:	08 95       	ret

0000014e <twi_clear_twsr_prescaler>:
 14e:	0f 93       	push	r16
 150:	00 91 b9 00 	lds	r16, 0x00B9	; 0x8000b9 <__EEPROM_REGION_LENGTH__+0x7f00b9>
 154:	0c 7f       	andi	r16, 0xFC	; 252
 156:	00 93 b9 00 	sts	0x00B9, r16	; 0x8000b9 <__EEPROM_REGION_LENGTH__+0x7f00b9>
 15a:	0f 91       	pop	r16
 15c:	08 95       	ret

0000015e <twi_interrupt_enable>:
 15e:	0f 93       	push	r16
 160:	00 91 bc 00 	lds	r16, 0x00BC	; 0x8000bc <__EEPROM_REGION_LENGTH__+0x7f00bc>
 164:	01 60       	ori	r16, 0x01	; 1
 166:	00 93 bc 00 	sts	0x00BC, r16	; 0x8000bc <__EEPROM_REGION_LENGTH__+0x7f00bc>
 16a:	0f 91       	pop	r16
 16c:	08 95       	ret

0000016e <twi_interrupt_disable>:
 16e:	0f 93       	push	r16
 170:	00 91 bc 00 	lds	r16, 0x00BC	; 0x8000bc <__EEPROM_REGION_LENGTH__+0x7f00bc>
 174:	0e 7f       	andi	r16, 0xFE	; 254
 176:	00 93 bc 00 	sts	0x00BC, r16	; 0x8000bc <__EEPROM_REGION_LENGTH__+0x7f00bc>
 17a:	0f 91       	pop	r16
 17c:	08 95       	ret

0000017e <twi_ack_diable>:
 17e:	0f 93       	push	r16
 180:	00 91 bc 00 	lds	r16, 0x00BC	; 0x8000bc <__EEPROM_REGION_LENGTH__+0x7f00bc>
 184:	0f 7b       	andi	r16, 0xBF	; 191
 186:	00 93 bc 00 	sts	0x00BC, r16	; 0x8000bc <__EEPROM_REGION_LENGTH__+0x7f00bc>
 18a:	0f 91       	pop	r16
 18c:	08 95       	ret

0000018e <set_sleep_mode>:
 18e:	83 bf       	out	0x33, r24	; 51
 190:	08 95       	ret

00000192 <hex2str>:
 192:	0f 93       	push	r16
 194:	1f 93       	push	r17
 196:	14 e0       	ldi	r17, 0x04	; 4
 198:	08 2f       	mov	r16, r24
 19a:	02 95       	swap	r16
 19c:	0f 70       	andi	r16, 0x0F	; 15
 19e:	0b d0       	rcall	.+22     	; 0x1b6 <r16_value2str>
 1a0:	90 2f       	mov	r25, r16
 1a2:	08 2f       	mov	r16, r24
 1a4:	0f 70       	andi	r16, 0x0F	; 15
 1a6:	07 d0       	rcall	.+14     	; 0x1b6 <r16_value2str>
 1a8:	80 2f       	mov	r24, r16
 1aa:	8f 93       	push	r24
 1ac:	89 2f       	mov	r24, r25
 1ae:	9f 91       	pop	r25
 1b0:	1f 91       	pop	r17
 1b2:	0f 91       	pop	r16
 1b4:	08 95       	ret

000001b6 <r16_value2str>:
 1b6:	1f 93       	push	r17
 1b8:	10 e3       	ldi	r17, 0x30	; 48
 1ba:	00 30       	cpi	r16, 0x00	; 0
 1bc:	59 f1       	breq	.+86     	; 0x214 <_r16_value2str_exit>
 1be:	11 e3       	ldi	r17, 0x31	; 49
 1c0:	01 30       	cpi	r16, 0x01	; 1
 1c2:	41 f1       	breq	.+80     	; 0x214 <_r16_value2str_exit>
 1c4:	12 e3       	ldi	r17, 0x32	; 50
 1c6:	02 30       	cpi	r16, 0x02	; 2
 1c8:	29 f1       	breq	.+74     	; 0x214 <_r16_value2str_exit>
 1ca:	13 e3       	ldi	r17, 0x33	; 51
 1cc:	03 30       	cpi	r16, 0x03	; 3
 1ce:	11 f1       	breq	.+68     	; 0x214 <_r16_value2str_exit>
 1d0:	14 e3       	ldi	r17, 0x34	; 52
 1d2:	04 30       	cpi	r16, 0x04	; 4
 1d4:	f9 f0       	breq	.+62     	; 0x214 <_r16_value2str_exit>
 1d6:	15 e3       	ldi	r17, 0x35	; 53
 1d8:	05 30       	cpi	r16, 0x05	; 5
 1da:	e1 f0       	breq	.+56     	; 0x214 <_r16_value2str_exit>
 1dc:	16 e3       	ldi	r17, 0x36	; 54
 1de:	06 30       	cpi	r16, 0x06	; 6
 1e0:	c9 f0       	breq	.+50     	; 0x214 <_r16_value2str_exit>
 1e2:	17 e3       	ldi	r17, 0x37	; 55
 1e4:	07 30       	cpi	r16, 0x07	; 7
 1e6:	b1 f0       	breq	.+44     	; 0x214 <_r16_value2str_exit>
 1e8:	18 e3       	ldi	r17, 0x38	; 56
 1ea:	08 30       	cpi	r16, 0x08	; 8
 1ec:	99 f0       	breq	.+38     	; 0x214 <_r16_value2str_exit>
 1ee:	19 e3       	ldi	r17, 0x39	; 57
 1f0:	09 30       	cpi	r16, 0x09	; 9
 1f2:	81 f0       	breq	.+32     	; 0x214 <_r16_value2str_exit>
 1f4:	11 e4       	ldi	r17, 0x41	; 65
 1f6:	0a 30       	cpi	r16, 0x0A	; 10
 1f8:	69 f0       	breq	.+26     	; 0x214 <_r16_value2str_exit>
 1fa:	12 e4       	ldi	r17, 0x42	; 66
 1fc:	0b 30       	cpi	r16, 0x0B	; 11
 1fe:	51 f0       	breq	.+20     	; 0x214 <_r16_value2str_exit>
 200:	13 e4       	ldi	r17, 0x43	; 67
 202:	0c 30       	cpi	r16, 0x0C	; 12
 204:	39 f0       	breq	.+14     	; 0x214 <_r16_value2str_exit>
 206:	14 e4       	ldi	r17, 0x44	; 68
 208:	0d 30       	cpi	r16, 0x0D	; 13
 20a:	21 f0       	breq	.+8      	; 0x214 <_r16_value2str_exit>
 20c:	15 e4       	ldi	r17, 0x45	; 69
 20e:	0e 30       	cpi	r16, 0x0E	; 14
 210:	09 f0       	breq	.+2      	; 0x214 <_r16_value2str_exit>
 212:	16 e4       	ldi	r17, 0x46	; 70

00000214 <_r16_value2str_exit>:
 214:	01 2f       	mov	r16, r17
 216:	1f 91       	pop	r17
 218:	08 95       	ret

0000021a <usart_init_rx_tx>:
 21a:	0f 93       	push	r16
 21c:	1a d0       	rcall	.+52     	; 0x252 <usart_set_pins_state>
 21e:	1e d0       	rcall	.+60     	; 0x25c <usart_set_baud_rate_9600>
 220:	08 ef       	ldi	r16, 0xF8	; 248
 222:	00 93 c1 00 	sts	0x00C1, r16	; 0x8000c1 <__EEPROM_REGION_LENGTH__+0x7f00c1>
 226:	06 e0       	ldi	r16, 0x06	; 6
 228:	00 93 c2 00 	sts	0x00C2, r16	; 0x8000c2 <__EEPROM_REGION_LENGTH__+0x7f00c2>
 22c:	0f 91       	pop	r16
 22e:	08 95       	ret

00000230 <usart_disable_interupts>:
 230:	0f 93       	push	r16
 232:	00 91 c1 00 	lds	r16, 0x00C1	; 0x8000c1 <__EEPROM_REGION_LENGTH__+0x7f00c1>
 236:	0f 71       	andi	r16, 0x1F	; 31
 238:	00 93 c1 00 	sts	0x00C1, r16	; 0x8000c1 <__EEPROM_REGION_LENGTH__+0x7f00c1>
 23c:	0f 91       	pop	r16
 23e:	08 95       	ret

00000240 <usart_transmit_data>:
 240:	0f 93       	push	r16

00000242 <_usart_transmit_data_loop>:
 242:	00 91 c0 00 	lds	r16, 0x00C0	; 0x8000c0 <__EEPROM_REGION_LENGTH__+0x7f00c0>
 246:	05 ff       	sbrs	r16, 5
 248:	fc cf       	rjmp	.-8      	; 0x242 <_usart_transmit_data_loop>
 24a:	80 93 c6 00 	sts	0x00C6, r24	; 0x8000c6 <__EEPROM_REGION_LENGTH__+0x7f00c6>
 24e:	0f 91       	pop	r16
 250:	08 95       	ret

00000252 <usart_set_pins_state>:
 252:	0a b1       	in	r16, 0x0a	; 10
 254:	02 60       	ori	r16, 0x02	; 2
 256:	0e 7f       	andi	r16, 0xFE	; 254
 258:	0a b9       	out	0x0a, r16	; 10
 25a:	08 95       	ret

0000025c <usart_set_baud_rate_9600>:
 25c:	1f 93       	push	r17
 25e:	00 e0       	ldi	r16, 0x00	; 0
 260:	17 e6       	ldi	r17, 0x67	; 103
 262:	00 93 c5 00 	sts	0x00C5, r16	; 0x8000c5 <__EEPROM_REGION_LENGTH__+0x7f00c5>
 266:	10 93 c4 00 	sts	0x00C4, r17	; 0x8000c4 <__EEPROM_REGION_LENGTH__+0x7f00c4>
 26a:	1f 91       	pop	r17
 26c:	08 95       	ret

0000026e <usart_set_udre_bit>:
 26e:	0f 93       	push	r16
 270:	00 91 c0 00 	lds	r16, 0x00C0	; 0x8000c0 <__EEPROM_REGION_LENGTH__+0x7f00c0>
 274:	00 62       	ori	r16, 0x20	; 32
 276:	00 93 c0 00 	sts	0x00C0, r16	; 0x8000c0 <__EEPROM_REGION_LENGTH__+0x7f00c0>
 27a:	0f 91       	pop	r16
 27c:	08 95       	ret

0000027e <usart_enable_transmitter>:
 27e:	0f 93       	push	r16
 280:	00 91 c1 00 	lds	r16, 0x00C1	; 0x8000c1 <__EEPROM_REGION_LENGTH__+0x7f00c1>
 284:	80 30       	cpi	r24, 0x00	; 0
 286:	11 f0       	breq	.+4      	; 0x28c <_usart_disable_transmitter_branch>
 288:	04 60       	ori	r16, 0x04	; 4
 28a:	01 c0       	rjmp	.+2      	; 0x28e <_usart_enable_transmitter_exit>

0000028c <_usart_disable_transmitter_branch>:
 28c:	07 7f       	andi	r16, 0xF7	; 247

0000028e <_usart_enable_transmitter_exit>:
 28e:	00 93 c1 00 	sts	0x00C1, r16	; 0x8000c1 <__EEPROM_REGION_LENGTH__+0x7f00c1>
 292:	0f 91       	pop	r16
 294:	08 95       	ret

00000296 <usart_enable_reciever>:
 296:	0f 93       	push	r16
 298:	00 91 c1 00 	lds	r16, 0x00C1	; 0x8000c1 <__EEPROM_REGION_LENGTH__+0x7f00c1>
 29c:	80 30       	cpi	r24, 0x00	; 0
 29e:	11 f0       	breq	.+4      	; 0x2a4 <_usart_disable_reciever_branch>
 2a0:	05 60       	ori	r16, 0x05	; 5
 2a2:	01 c0       	rjmp	.+2      	; 0x2a6 <_usart_enable_reciever_exit>

000002a4 <_usart_disable_reciever_branch>:
 2a4:	0f 7e       	andi	r16, 0xEF	; 239

000002a6 <_usart_enable_reciever_exit>:
 2a6:	00 93 c1 00 	sts	0x00C1, r16	; 0x8000c1 <__EEPROM_REGION_LENGTH__+0x7f00c1>
 2aa:	0f 91       	pop	r16
 2ac:	08 95       	ret

000002ae <usart_transmit_32bit_data>:
 2ae:	0f 93       	push	r16
 2b0:	1f 93       	push	r17
 2b2:	8f 93       	push	r24
 2b4:	9f 93       	push	r25
 2b6:	af 93       	push	r26
 2b8:	bf 93       	push	r27
 2ba:	8f 93       	push	r24
 2bc:	9f 93       	push	r25
 2be:	af 93       	push	r26
 2c0:	bf 93       	push	r27
 2c2:	14 e0       	ldi	r17, 0x04	; 4

000002c4 <_usart_transmit_32bit_data_load>:
 2c4:	8f 91       	pop	r24
 2c6:	65 df       	rcall	.-310    	; 0x192 <hex2str>
 2c8:	08 2f       	mov	r16, r24
 2ca:	89 2f       	mov	r24, r25
 2cc:	b9 df       	rcall	.-142    	; 0x240 <usart_transmit_data>
 2ce:	80 2f       	mov	r24, r16
 2d0:	b7 df       	rcall	.-146    	; 0x240 <usart_transmit_data>
 2d2:	1a 95       	dec	r17
 2d4:	10 30       	cpi	r17, 0x00	; 0
 2d6:	b1 f7       	brne	.-20     	; 0x2c4 <_usart_transmit_32bit_data_load>
 2d8:	8a e0       	ldi	r24, 0x0A	; 10
 2da:	b2 df       	rcall	.-156    	; 0x240 <usart_transmit_data>
 2dc:	bf 91       	pop	r27
 2de:	af 91       	pop	r26
 2e0:	9f 91       	pop	r25
 2e2:	8f 91       	pop	r24
 2e4:	1f 91       	pop	r17
 2e6:	0f 91       	pop	r16
 2e8:	08 95       	ret

000002ea <usart_transmit_16bit_data>:
 2ea:	0f 93       	push	r16
 2ec:	1f 93       	push	r17
 2ee:	8f 93       	push	r24
 2f0:	9f 93       	push	r25
 2f2:	8f 93       	push	r24
 2f4:	9f 93       	push	r25
 2f6:	12 e0       	ldi	r17, 0x02	; 2

000002f8 <_usart_transmit_16bit_data_load>:
 2f8:	8f 91       	pop	r24
 2fa:	4b df       	rcall	.-362    	; 0x192 <hex2str>
 2fc:	08 2f       	mov	r16, r24
 2fe:	89 2f       	mov	r24, r25
 300:	9f df       	rcall	.-194    	; 0x240 <usart_transmit_data>
 302:	80 2f       	mov	r24, r16
 304:	9d df       	rcall	.-198    	; 0x240 <usart_transmit_data>
 306:	1a 95       	dec	r17
 308:	10 30       	cpi	r17, 0x00	; 0
 30a:	b1 f7       	brne	.-20     	; 0x2f8 <_usart_transmit_16bit_data_load>
 30c:	8a e0       	ldi	r24, 0x0A	; 10
 30e:	98 df       	rcall	.-208    	; 0x240 <usart_transmit_data>
 310:	9f 91       	pop	r25
 312:	8f 91       	pop	r24
 314:	1f 91       	pop	r17
 316:	0f 91       	pop	r16
 318:	08 95       	ret

0000031a <debug_check_ucsr0b_udrie0_bit>:
 31a:	0f 93       	push	r16
 31c:	00 91 c1 00 	lds	r16, 0x00C1	; 0x8000c1 <__EEPROM_REGION_LENGTH__+0x7f00c1>
 320:	06 fd       	sbrc	r16, 6
 322:	08 d0       	rcall	.+16     	; 0x334 <flash_led>
 324:	0f 91       	pop	r16
 326:	08 95       	ret

00000328 <debug_check_sreg_interrupt_flag>:
 328:	0f 93       	push	r16
 32a:	0f b7       	in	r16, 0x3f	; 63
 32c:	07 fd       	sbrc	r16, 7
 32e:	02 d0       	rcall	.+4      	; 0x334 <flash_led>
 330:	0f 91       	pop	r16
 332:	08 95       	ret

00000334 <flash_led>:
 334:	0f 93       	push	r16
 336:	1f 93       	push	r17
 338:	03 b1       	in	r16, 0x03	; 3
 33a:	10 e2       	ldi	r17, 0x20	; 32
 33c:	01 27       	eor	r16, r17
 33e:	05 b9       	out	0x05, r16	; 5
 340:	1f 91       	pop	r17
 342:	0f 91       	pop	r16
 344:	08 95       	ret

00000346 <set_led>:
 346:	0f 93       	push	r16
 348:	03 b1       	in	r16, 0x03	; 3
 34a:	00 62       	ori	r16, 0x20	; 32
 34c:	05 b9       	out	0x05, r16	; 5
 34e:	0f 91       	pop	r16
 350:	08 95       	ret

00000352 <unset_led>:
 352:	0f 93       	push	r16
 354:	03 b1       	in	r16, 0x03	; 3
 356:	0f 7d       	andi	r16, 0xDF	; 223
 358:	05 b9       	out	0x05, r16	; 5
 35a:	0f 91       	pop	r16
 35c:	08 95       	ret

0000035e <init_led>:
 35e:	0f 93       	push	r16
 360:	00 e2       	ldi	r16, 0x20	; 32
 362:	04 b9       	out	0x04, r16	; 4
 364:	0f 91       	pop	r16
 366:	08 95       	ret

00000368 <div_unit_16bit>:
 368:	0f 93       	push	r16
 36a:	1f 93       	push	r17
 36c:	11 27       	eor	r17, r17

0000036e <div_unit_16bit_loop>:
 36e:	1f 91       	pop	r17
 370:	0f 91       	pop	r16
 372:	08 95       	ret

00000374 <sub_uint_16bit>:
 374:	2f 92       	push	r2
 376:	22 24       	eor	r2, r2
 378:	8c 2f       	mov	r24, r28
 37a:	9d 2f       	mov	r25, r29
 37c:	8e 1b       	sub	r24, r30
 37e:	9f 0b       	sbc	r25, r31
 380:	82 09       	sbc	r24, r2
 382:	2f 90       	pop	r2
 384:	08 95       	ret

00000386 <add_uint_16bit>:
 386:	2f 92       	push	r2
 388:	22 24       	eor	r2, r2
 38a:	aa 27       	eor	r26, r26
 38c:	bb 27       	eor	r27, r27
 38e:	8c 2f       	mov	r24, r28
 390:	9d 2f       	mov	r25, r29
 392:	8e 0f       	add	r24, r30
 394:	9f 1f       	adc	r25, r31
 396:	a2 1d       	adc	r26, r2
 398:	2f 90       	pop	r2
 39a:	08 95       	ret

0000039c <mul_uint_16bit>:
 39c:	2f 92       	push	r2
 39e:	22 24       	eor	r2, r2
 3a0:	df 9f       	mul	r29, r31
 3a2:	d0 01       	movw	r26, r0
 3a4:	ce 9f       	mul	r28, r30
 3a6:	c0 01       	movw	r24, r0
 3a8:	de 9f       	mul	r29, r30
 3aa:	90 0d       	add	r25, r0
 3ac:	a1 1d       	adc	r26, r1
 3ae:	b2 1d       	adc	r27, r2
 3b0:	cf 9f       	mul	r28, r31
 3b2:	90 0d       	add	r25, r0
 3b4:	a1 1d       	adc	r26, r1
 3b6:	b2 1d       	adc	r27, r2
 3b8:	2f 90       	pop	r2
 3ba:	08 95       	ret

000003bc <lsl_uint_16bit>:
 3bc:	99 0f       	add	r25, r25
 3be:	88 0f       	add	r24, r24
 3c0:	08 f4       	brcc	.+2      	; 0x3c4 <_lsl_uint_16bit_exit>
 3c2:	91 60       	ori	r25, 0x01	; 1

000003c4 <_lsl_uint_16bit_exit>:
 3c4:	08 95       	ret

000003c6 <lsr_uint_16bit>:
 3c6:	86 95       	lsr	r24
 3c8:	96 95       	lsr	r25
 3ca:	08 f4       	brcc	.+2      	; 0x3ce <_lsr_uint_16bit_exit>
 3cc:	80 68       	ori	r24, 0x80	; 128

000003ce <_lsr_uint_16bit_exit>:
 3ce:	08 95       	ret

000003d0 <bmp_085_init>:
 3d0:	8f 93       	push	r24
 3d2:	84 e4       	ldi	r24, 0x44	; 68
 3d4:	63 de       	rcall	.-826    	; 0x9c <twi_init_twcr>
 3d6:	88 e4       	ldi	r24, 0x48	; 72
 3d8:	91 de       	rcall	.-734    	; 0xfc <twi_set_twbr_atmega328p_prescaler>
 3da:	7b d0       	rcall	.+246    	; 0x4d2 <bmp_085_reset_actions_and_states>
 3dc:	8f 91       	pop	r24
 3de:	08 95       	ret

000003e0 <bmp_085_request_sensor_data>:
 3e0:	af 93       	push	r26
 3e2:	bf 93       	push	r27
 3e4:	ad b7       	in	r26, 0x3d	; 61
 3e6:	be b7       	in	r27, 0x3e	; 62
 3e8:	8f 93       	push	r24
 3ea:	68 de       	rcall	.-816    	; 0xbc <twi_send_start_condition>
 3ec:	9e de       	rcall	.-708    	; 0x12a <twi_get_status>
 3ee:	88 30       	cpi	r24, 0x08	; 8
 3f0:	21 f0       	breq	.+8      	; 0x3fa <_bmp_085_request_sensor_data_send_address_w>
 3f2:	80 31       	cpi	r24, 0x10	; 16
 3f4:	11 f0       	breq	.+4      	; 0x3fa <_bmp_085_request_sensor_data_send_address_w>
 3f6:	7c d0       	rcall	.+248    	; 0x4f0 <bmp_085_error_handler>
 3f8:	15 c0       	rjmp	.+42     	; 0x424 <_bmp_085_request_sensor_data_exit>

000003fa <_bmp_085_request_sensor_data_send_address_w>:
 3fa:	8e ee       	ldi	r24, 0xEE	; 238
 3fc:	82 de       	rcall	.-764    	; 0x102 <twi_send_byte>
 3fe:	95 de       	rcall	.-726    	; 0x12a <twi_get_status>
 400:	88 31       	cpi	r24, 0x18	; 24
 402:	11 f0       	breq	.+4      	; 0x408 <_bmp_085_request_sensor_data_send_reg_address_w>
 404:	75 d0       	rcall	.+234    	; 0x4f0 <bmp_085_error_handler>
 406:	0e c0       	rjmp	.+28     	; 0x424 <_bmp_085_request_sensor_data_exit>

00000408 <_bmp_085_request_sensor_data_send_reg_address_w>:
 408:	84 ef       	ldi	r24, 0xF4	; 244
 40a:	7b de       	rcall	.-778    	; 0x102 <twi_send_byte>
 40c:	8e de       	rcall	.-740    	; 0x12a <twi_get_status>
 40e:	88 32       	cpi	r24, 0x28	; 40
 410:	11 f0       	breq	.+4      	; 0x416 <_bmp_085_request_sensor_data_send_control_value_w>
 412:	6e d0       	rcall	.+220    	; 0x4f0 <bmp_085_error_handler>
 414:	07 c0       	rjmp	.+14     	; 0x424 <_bmp_085_request_sensor_data_exit>

00000416 <_bmp_085_request_sensor_data_send_control_value_w>:
 416:	8c 91       	ld	r24, X
 418:	74 de       	rcall	.-792    	; 0x102 <twi_send_byte>
 41a:	87 de       	rcall	.-754    	; 0x12a <twi_get_status>
 41c:	88 32       	cpi	r24, 0x28	; 40
 41e:	11 f0       	breq	.+4      	; 0x424 <_bmp_085_request_sensor_data_exit>
 420:	67 d0       	rcall	.+206    	; 0x4f0 <bmp_085_error_handler>
 422:	00 c0       	rjmp	.+0      	; 0x424 <_bmp_085_request_sensor_data_exit>

00000424 <_bmp_085_request_sensor_data_exit>:
 424:	57 de       	rcall	.-850    	; 0xd4 <twi_send_stop_condition>
 426:	ad bf       	out	0x3d, r26	; 61
 428:	be bf       	out	0x3e, r27	; 62
 42a:	bf 91       	pop	r27
 42c:	af 91       	pop	r26
 42e:	08 95       	ret

00000430 <bmp_085_read_data>:
 430:	af 93       	push	r26
 432:	bf 93       	push	r27
 434:	ad b7       	in	r26, 0x3d	; 61
 436:	be b7       	in	r27, 0x3e	; 62
 438:	7f 93       	push	r23
 43a:	9f 93       	push	r25
 43c:	8f 93       	push	r24
 43e:	15 97       	sbiw	r26, 0x05	; 5
 440:	ad bf       	out	0x3d, r26	; 61
 442:	be bf       	out	0x3e, r27	; 62
 444:	15 96       	adiw	r26, 0x05	; 5
 446:	3a de       	rcall	.-908    	; 0xbc <twi_send_start_condition>
 448:	70 de       	rcall	.-800    	; 0x12a <twi_get_status>
 44a:	88 30       	cpi	r24, 0x08	; 8
 44c:	11 f0       	breq	.+4      	; 0x452 <_bmp_085_read_data_send_address_w>
 44e:	50 d0       	rcall	.+160    	; 0x4f0 <bmp_085_error_handler>
 450:	34 c0       	rjmp	.+104    	; 0x4ba <_bmp_085_read_data_exit>

00000452 <_bmp_085_read_data_send_address_w>:
 452:	8e ee       	ldi	r24, 0xEE	; 238
 454:	56 de       	rcall	.-852    	; 0x102 <twi_send_byte>
 456:	69 de       	rcall	.-814    	; 0x12a <twi_get_status>
 458:	88 31       	cpi	r24, 0x18	; 24
 45a:	11 f0       	breq	.+4      	; 0x460 <_bmp_085_read_data_send_reg_address_w>
 45c:	49 d0       	rcall	.+146    	; 0x4f0 <bmp_085_error_handler>
 45e:	2d c0       	rjmp	.+90     	; 0x4ba <_bmp_085_read_data_exit>

00000460 <_bmp_085_read_data_send_reg_address_w>:
 460:	8c 91       	ld	r24, X
 462:	4f de       	rcall	.-866    	; 0x102 <twi_send_byte>
 464:	62 de       	rcall	.-828    	; 0x12a <twi_get_status>
 466:	88 32       	cpi	r24, 0x28	; 40
 468:	11 f0       	breq	.+4      	; 0x46e <_bmp_085_read_data_send_stop_w>
 46a:	42 d0       	rcall	.+132    	; 0x4f0 <bmp_085_error_handler>
 46c:	26 c0       	rjmp	.+76     	; 0x4ba <_bmp_085_read_data_exit>

0000046e <_bmp_085_read_data_send_stop_w>:
 46e:	26 de       	rcall	.-948    	; 0xbc <twi_send_start_condition>
 470:	5c de       	rcall	.-840    	; 0x12a <twi_get_status>
 472:	80 31       	cpi	r24, 0x10	; 16
 474:	11 f0       	breq	.+4      	; 0x47a <_bmp_085_read_data_send_address_r>
 476:	3c d0       	rcall	.+120    	; 0x4f0 <bmp_085_error_handler>
 478:	20 c0       	rjmp	.+64     	; 0x4ba <_bmp_085_read_data_exit>

0000047a <_bmp_085_read_data_send_address_r>:
 47a:	8f ee       	ldi	r24, 0xEF	; 239
 47c:	42 de       	rcall	.-892    	; 0x102 <twi_send_byte>
 47e:	55 de       	rcall	.-854    	; 0x12a <twi_get_status>
 480:	80 34       	cpi	r24, 0x40	; 64
 482:	11 f0       	breq	.+4      	; 0x488 <_bmp_085_read_data_send_reg_address_r>
 484:	35 d0       	rcall	.+106    	; 0x4f0 <bmp_085_error_handler>
 486:	19 c0       	rjmp	.+50     	; 0x4ba <_bmp_085_read_data_exit>

00000488 <_bmp_085_read_data_send_reg_address_r>:
 488:	11 97       	sbiw	r26, 0x01	; 1
 48a:	8c 91       	ld	r24, X
 48c:	11 96       	adiw	r26, 0x01	; 1
 48e:	39 de       	rcall	.-910    	; 0x102 <twi_send_byte>
 490:	42 de       	rcall	.-892    	; 0x116 <twi_read_data>
 492:	13 97       	sbiw	r26, 0x03	; 3
 494:	8c 93       	st	X, r24
 496:	13 96       	adiw	r26, 0x03	; 3
 498:	48 de       	rcall	.-880    	; 0x12a <twi_get_status>
 49a:	80 35       	cpi	r24, 0x50	; 80
 49c:	09 f0       	breq	.+2      	; 0x4a0 <_bmp_085_read_data_send_reg_address2_r>
 49e:	28 d0       	rcall	.+80     	; 0x4f0 <bmp_085_error_handler>

000004a0 <_bmp_085_read_data_send_reg_address2_r>:
 4a0:	6e de       	rcall	.-804    	; 0x17e <twi_ack_diable>
 4a2:	12 97       	sbiw	r26, 0x02	; 2
 4a4:	8c 91       	ld	r24, X
 4a6:	12 96       	adiw	r26, 0x02	; 2
 4a8:	2c de       	rcall	.-936    	; 0x102 <twi_send_byte>
 4aa:	35 de       	rcall	.-918    	; 0x116 <twi_read_data>
 4ac:	14 97       	sbiw	r26, 0x04	; 4
 4ae:	8c 93       	st	X, r24
 4b0:	14 96       	adiw	r26, 0x04	; 4
 4b2:	3b de       	rcall	.-906    	; 0x12a <twi_get_status>
 4b4:	88 35       	cpi	r24, 0x58	; 88
 4b6:	09 f0       	breq	.+2      	; 0x4ba <_bmp_085_read_data_exit>
 4b8:	1b d0       	rcall	.+54     	; 0x4f0 <bmp_085_error_handler>

000004ba <_bmp_085_read_data_exit>:
 4ba:	0c de       	rcall	.-1000   	; 0xd4 <twi_send_stop_condition>
 4bc:	7c 91       	ld	r23, X
 4be:	13 97       	sbiw	r26, 0x03	; 3
 4c0:	9c 91       	ld	r25, X
 4c2:	11 97       	sbiw	r26, 0x01	; 1
 4c4:	8c 91       	ld	r24, X
 4c6:	14 96       	adiw	r26, 0x04	; 4
 4c8:	ad bf       	out	0x3d, r26	; 61
 4ca:	be bf       	out	0x3e, r27	; 62
 4cc:	bf 91       	pop	r27
 4ce:	af 91       	pop	r26
 4d0:	08 95       	ret

000004d2 <bmp_085_reset_actions_and_states>:
 4d2:	af 93       	push	r26
 4d4:	bf 93       	push	r27
 4d6:	cf 93       	push	r28
 4d8:	df 93       	push	r29
 4da:	a1 e0       	ldi	r26, 0x01	; 1
 4dc:	a0 93 02 01 	sts	0x0102, r26	; 0x800102 <twi_current_action>
 4e0:	a3 95       	inc	r26
 4e2:	a0 93 03 01 	sts	0x0103, r26	; 0x800103 <twi_next_action>
 4e6:	df 91       	pop	r29
 4e8:	cf 91       	pop	r28
 4ea:	bf 91       	pop	r27
 4ec:	af 91       	pop	r26
 4ee:	08 95       	ret

000004f0 <bmp_085_error_handler>:
 4f0:	0f 93       	push	r16
 4f2:	00 91 02 01 	lds	r16, 0x0102	; 0x800102 <twi_current_action>
 4f6:	01 30       	cpi	r16, 0x01	; 1
 4f8:	09 f4       	brne	.+2      	; 0x4fc <_bmp_085_error_handler_other>
 4fa:	02 d0       	rcall	.+4      	; 0x500 <bmp_085_device_reset>

000004fc <_bmp_085_error_handler_other>:
 4fc:	0f 91       	pop	r16
 4fe:	08 95       	ret

00000500 <bmp_085_device_reset>:
 500:	bc dd       	rcall	.-1160   	; 0x7a <watchdog_init_reset_mode>
 502:	88 95       	sleep
 504:	08 95       	ret

00000506 <bmp_085_calc_temperature>:
 506:	0f 93       	push	r16
 508:	1f 93       	push	r17
 50a:	2f 93       	push	r18
 50c:	3f 93       	push	r19
 50e:	af 93       	push	r26
 510:	bf 93       	push	r27
 512:	cf 93       	push	r28
 514:	df 93       	push	r29
 516:	ad b7       	in	r26, 0x3d	; 61
 518:	be b7       	in	r27, 0x3e	; 62
 51a:	9f 93       	push	r25
 51c:	8f 93       	push	r24
 51e:	50 97       	sbiw	r26, 0x10	; 16
 520:	ad bf       	out	0x3d, r26	; 61
 522:	be bf       	out	0x3e, r27	; 62
 524:	50 96       	adiw	r26, 0x10	; 16
 526:	d0 e0       	ldi	r29, 0x00	; 0
 528:	ca e8       	ldi	r28, 0x8A	; 138
 52a:	cf 93       	push	r28
 52c:	df 93       	push	r29
 52e:	ef 93       	push	r30
 530:	ff 93       	push	r31
 532:	e8 81       	ld	r30, Y
 534:	21 96       	adiw	r28, 0x01	; 1
 536:	f8 81       	ld	r31, Y
 538:	22 97       	sbiw	r28, 0x02	; 2
 53a:	8f 93       	push	r24
 53c:	8f 2f       	mov	r24, r31
 53e:	a1 d0       	rcall	.+322    	; 0x682 <send_to_usart>
 540:	8e 2f       	mov	r24, r30
 542:	9f d0       	rcall	.+318    	; 0x682 <send_to_usart>
 544:	8f 91       	pop	r24
 546:	dc 91       	ld	r29, X
 548:	11 97       	sbiw	r26, 0x01	; 1
 54a:	cc 91       	ld	r28, X
 54c:	11 96       	adiw	r26, 0x01	; 1
 54e:	12 df       	rcall	.-476    	; 0x374 <sub_uint_16bit>
 550:	19 2f       	mov	r17, r25
 552:	08 2f       	mov	r16, r24
 554:	ff 91       	pop	r31
 556:	ef 91       	pop	r30
 558:	df 91       	pop	r29
 55a:	cf 91       	pop	r28
 55c:	cf 93       	push	r28
 55e:	df 93       	push	r29
 560:	ef 93       	push	r30
 562:	ff 93       	push	r31
 564:	f1 2f       	mov	r31, r17
 566:	f0 2f       	mov	r31, r16
 568:	28 96       	adiw	r28, 0x08	; 8
 56a:	18 81       	ld	r17, Y
 56c:	21 96       	adiw	r28, 0x01	; 1
 56e:	08 81       	ld	r16, Y
 570:	29 97       	sbiw	r28, 0x09	; 9
 572:	d1 2f       	mov	r29, r17
 574:	c0 2f       	mov	r28, r16
 576:	af 93       	push	r26
 578:	bf 93       	push	r27
 57a:	10 df       	rcall	.-480    	; 0x39c <mul_uint_16bit>
 57c:	3b 2f       	mov	r19, r27
 57e:	2a 2f       	mov	r18, r26
 580:	19 2f       	mov	r17, r25
 582:	08 2f       	mov	r16, r24
 584:	bf 91       	pop	r27
 586:	af 91       	pop	r26
 588:	ff 91       	pop	r31
 58a:	ef 91       	pop	r30
 58c:	df 91       	pop	r29
 58e:	cf 91       	pop	r28
 590:	01 2f       	mov	r16, r17
 592:	01 70       	andi	r16, 0x01	; 1
 594:	12 2f       	mov	r17, r18
 596:	11 0f       	add	r17, r17
 598:	01 2b       	or	r16, r17
 59a:	12 2f       	mov	r17, r18
 59c:	11 1f       	adc	r17, r17
 59e:	11 1f       	adc	r17, r17
 5a0:	11 70       	andi	r17, 0x01	; 1
 5a2:	23 2f       	mov	r18, r19
 5a4:	22 0f       	add	r18, r18
 5a6:	12 2b       	or	r17, r18
 5a8:	23 2f       	mov	r18, r19
 5aa:	22 1f       	adc	r18, r18
 5ac:	22 1f       	adc	r18, r18
 5ae:	21 70       	andi	r18, 0x01	; 1
 5b0:	33 27       	eor	r19, r19
 5b2:	12 97       	sbiw	r26, 0x02	; 2
 5b4:	3c 93       	st	X, r19
 5b6:	11 97       	sbiw	r26, 0x01	; 1
 5b8:	2c 93       	st	X, r18
 5ba:	11 97       	sbiw	r26, 0x01	; 1
 5bc:	1c 93       	st	X, r17
 5be:	11 97       	sbiw	r26, 0x01	; 1
 5c0:	0c 93       	st	X, r16
 5c2:	15 96       	adiw	r26, 0x05	; 5
 5c4:	ad bf       	out	0x3d, r26	; 61
 5c6:	be bf       	out	0x3e, r27	; 62
 5c8:	df 91       	pop	r29
 5ca:	cf 91       	pop	r28
 5cc:	bf 91       	pop	r27
 5ce:	af 91       	pop	r26
 5d0:	3f 91       	pop	r19
 5d2:	2f 91       	pop	r18
 5d4:	1f 91       	pop	r17
 5d6:	0f 91       	pop	r16
 5d8:	08 95       	ret

000005da <bmp_085_watchdog_timeout_iterrupt>:
 5da:	8f 93       	push	r24
 5dc:	57 dd       	rcall	.-1362   	; 0x8c <watchdog_interrupt_disable>
 5de:	bb 27       	eor	r27, r27
 5e0:	aa 27       	eor	r26, r26

000005e2 <_bmp_085_watchdog_timeout_iterrupt_exit>:
 5e2:	8f 91       	pop	r24
 5e4:	18 95       	reti

000005e6 <main>:
 5e6:	0f ef       	ldi	r16, 0xFF	; 255
 5e8:	0d bf       	out	0x3d, r16	; 61
 5ea:	08 e0       	ldi	r16, 0x08	; 8
 5ec:	0e bf       	out	0x3e, r16	; 62
 5ee:	b7 de       	rcall	.-658    	; 0x35e <init_led>
 5f0:	81 e0       	ldi	r24, 0x01	; 1
 5f2:	cd dd       	rcall	.-1126   	; 0x18e <set_sleep_mode>
 5f4:	12 de       	rcall	.-988    	; 0x21a <usart_init_rx_tx>
 5f6:	1c de       	rcall	.-968    	; 0x230 <usart_disable_interupts>
 5f8:	eb de       	rcall	.-554    	; 0x3d0 <bmp_085_init>
 5fa:	78 94       	sei
 5fc:	1b d0       	rcall	.+54     	; 0x634 <read_bmp085_calibrations>

000005fe <_sleep_loop>:
 5fe:	34 dd       	rcall	.-1432   	; 0x68 <watchdog_init_interrupt_mode>
 600:	88 95       	sleep
 602:	02 d0       	rcall	.+4      	; 0x608 <read_bmp085_sensor_values>
 604:	fc cf       	rjmp	.-8      	; 0x5fe <_sleep_loop>
 606:	08 95       	ret

00000608 <read_bmp085_sensor_values>:
 608:	8f 93       	push	r24
 60a:	9f 93       	push	r25
 60c:	8e e2       	ldi	r24, 0x2E	; 46
 60e:	e8 de       	rcall	.-560    	; 0x3e0 <bmp_085_request_sensor_data>
 610:	41 d0       	rcall	.+130    	; 0x694 <delayFunc>
 612:	76 ef       	ldi	r23, 0xF6	; 246
 614:	96 ef       	ldi	r25, 0xF6	; 246
 616:	87 ef       	ldi	r24, 0xF7	; 247
 618:	0b df       	rcall	.-490    	; 0x430 <bmp_085_read_data>
 61a:	8f 93       	push	r24
 61c:	89 2f       	mov	r24, r25
 61e:	31 d0       	rcall	.+98     	; 0x682 <send_to_usart>
 620:	8f 91       	pop	r24
 622:	2f d0       	rcall	.+94     	; 0x682 <send_to_usart>
 624:	8f 93       	push	r24
 626:	80 e0       	ldi	r24, 0x00	; 0
 628:	2c d0       	rcall	.+88     	; 0x682 <send_to_usart>
 62a:	8f 91       	pop	r24
 62c:	6c df       	rcall	.-296    	; 0x506 <bmp_085_calc_temperature>
 62e:	9f 91       	pop	r25
 630:	8f 91       	pop	r24
 632:	08 95       	ret

00000634 <read_bmp085_calibrations>:
 634:	0f 93       	push	r16
 636:	8f 93       	push	r24
 638:	9f 93       	push	r25
 63a:	af 93       	push	r26
 63c:	cf 93       	push	r28
 63e:	df 93       	push	r29
 640:	aa ea       	ldi	r26, 0xAA	; 170
 642:	c4 e1       	ldi	r28, 0x14	; 20
 644:	d1 e0       	ldi	r29, 0x01	; 1
 646:	0b e0       	ldi	r16, 0x0B	; 11

00000648 <_read_bmp085_calibrations_loop>:
 648:	7a 2f       	mov	r23, r26
 64a:	9a 2f       	mov	r25, r26
 64c:	a3 95       	inc	r26
 64e:	8a 2f       	mov	r24, r26
 650:	a3 95       	inc	r26
 652:	ee de       	rcall	.-548    	; 0x430 <bmp_085_read_data>
 654:	8f 3f       	cpi	r24, 0xFF	; 255
 656:	19 f4       	brne	.+6      	; 0x65e <_read_bmp085_calibrations_zero_check>
 658:	9f 3f       	cpi	r25, 0xFF	; 255
 65a:	09 f4       	brne	.+2      	; 0x65e <_read_bmp085_calibrations_zero_check>
 65c:	49 df       	rcall	.-366    	; 0x4f0 <bmp_085_error_handler>

0000065e <_read_bmp085_calibrations_zero_check>:
 65e:	80 30       	cpi	r24, 0x00	; 0
 660:	19 f4       	brne	.+6      	; 0x668 <_read_bmp085_calibrations_save_callibration>
 662:	90 30       	cpi	r25, 0x00	; 0
 664:	09 f4       	brne	.+2      	; 0x668 <_read_bmp085_calibrations_save_callibration>
 666:	44 df       	rcall	.-376    	; 0x4f0 <bmp_085_error_handler>

00000668 <_read_bmp085_calibrations_save_callibration>:
 668:	98 83       	st	Y, r25
 66a:	21 96       	adiw	r28, 0x01	; 1
 66c:	88 83       	st	Y, r24
 66e:	21 96       	adiw	r28, 0x01	; 1
 670:	0a 95       	dec	r16
 672:	51 f7       	brne	.-44     	; 0x648 <_read_bmp085_calibrations_loop>
 674:	df 91       	pop	r29
 676:	cf 91       	pop	r28
 678:	af 91       	pop	r26
 67a:	9f 91       	pop	r25
 67c:	8f 91       	pop	r24
 67e:	0f 91       	pop	r16
 680:	08 95       	ret

00000682 <send_to_usart>:
 682:	8f 93       	push	r24
 684:	9f 93       	push	r25
 686:	85 dd       	rcall	.-1270   	; 0x192 <hex2str>
 688:	db dd       	rcall	.-1098   	; 0x240 <usart_transmit_data>
 68a:	89 2f       	mov	r24, r25
 68c:	d9 dd       	rcall	.-1102   	; 0x240 <usart_transmit_data>
 68e:	9f 91       	pop	r25
 690:	8f 91       	pop	r24
 692:	08 95       	ret

00000694 <delayFunc>:
 694:	2f 93       	push	r18
 696:	3f 93       	push	r19
 698:	4f 93       	push	r20
 69a:	2e ef       	ldi	r18, 0xFE	; 254
 69c:	3e ef       	ldi	r19, 0xFE	; 254
 69e:	4e ef       	ldi	r20, 0xFE	; 254

000006a0 <L1>:
 6a0:	4a 95       	dec	r20
 6a2:	f1 f7       	brne	.-4      	; 0x6a0 <L1>
 6a4:	3a 95       	dec	r19
 6a6:	e1 f7       	brne	.-8      	; 0x6a0 <L1>
 6a8:	2a 95       	dec	r18
 6aa:	d1 f7       	brne	.-12     	; 0x6a0 <L1>
 6ac:	4f 91       	pop	r20
 6ae:	3f 91       	pop	r19
 6b0:	2f 91       	pop	r18
 6b2:	08 95       	ret

000006b4 <return_from_interrupt>:
 6b4:	18 95       	reti

Disassembly of section .data:

00800060 <twi_twcr_init_value-0xa0>:
	...

00800100 <twi_twcr_init_value>:
	...

00800102 <twi_current_action>:
	...

00800103 <twi_next_action>:
	...

00800104 <twi_mt_states_queue>:
  800104:	08 10       	cpse	r0, r8
  800106:	18 28       	or	r1, r8
  800108:	f8 00       	.word	0x00f8	; ????
  80010a:	20 30       	cpi	r18, 0x00	; 0

0080010c <twi_mr_states_queue>:
  80010c:	08 10       	cpse	r0, r8
  80010e:	40 50       	subi	r20, 0x00	; 0
  800110:	f8 00       	.word	0x00f8	; ????
  800112:	48 58       	subi	r20, 0x88	; 136

00800114 <bmp085_calibration_values>:
	...

Disassembly of section .debug_aranges:

00000000 <.debug_aranges>:
   0:	1c 00       	.word	0x001c	; ????
   2:	00 00       	nop
   4:	02 00       	.word	0x0002	; ????
   6:	00 00       	nop
   8:	00 00       	nop
   a:	04 00       	.word	0x0004	; ????
	...
  14:	b6 06       	cpc	r11, r22
	...

Disassembly of section .debug_info:

00000000 <.debug_info>:
   0:	83 00       	.word	0x0083	; ????
   2:	00 00       	nop
   4:	02 00       	.word	0x0002	; ????
   6:	00 00       	nop
   8:	00 00       	nop
   a:	04 01       	movw	r0, r8
	...
  14:	b6 06       	cpc	r11, r22
  16:	00 00       	nop
  18:	2e 5c       	subi	r18, 0xCE	; 206
  1a:	63 6f       	ori	r22, 0xF3	; 243
  1c:	64 65       	ori	r22, 0x54	; 84
  1e:	2f 6d       	ori	r18, 0xDF	; 223
  20:	61 69       	ori	r22, 0x91	; 145
  22:	6e 2e       	mov	r6, r30
  24:	73 00       	.word	0x0073	; ????
  26:	43 3a       	cpi	r20, 0xA3	; 163
  28:	5c 55       	subi	r21, 0x5C	; 92
  2a:	73 65       	ori	r23, 0x53	; 83
  2c:	72 73       	andi	r23, 0x32	; 50
  2e:	5c 6a       	ori	r21, 0xAC	; 172
  30:	61 5c       	subi	r22, 0xC1	; 193
  32:	44 72       	andi	r20, 0x24	; 36
  34:	6f 70       	andi	r22, 0x0F	; 15
  36:	62 6f       	ori	r22, 0xF2	; 242
  38:	78 5c       	subi	r23, 0xC8	; 200
  3a:	49 6d       	ori	r20, 0xD9	; 217
  3c:	70 6f       	ori	r23, 0xF0	; 240
  3e:	72 74       	andi	r23, 0x42	; 66
  40:	61 6e       	ori	r22, 0xE1	; 225
  42:	74 20       	and	r7, r4
  44:	64 6f       	ori	r22, 0xF4	; 244
  46:	63 75       	andi	r22, 0x53	; 83
  48:	6d 65       	ori	r22, 0x5D	; 93
  4a:	6e 74       	andi	r22, 0x4E	; 78
  4c:	73 5c       	subi	r23, 0xC3	; 195
  4e:	41 72       	andi	r20, 0x21	; 33
  50:	64 75       	andi	r22, 0x54	; 84
  52:	69 6e       	ori	r22, 0xE9	; 233
  54:	6f 20       	and	r6, r15
  56:	70 72       	andi	r23, 0x20	; 32
  58:	6f 6a       	ori	r22, 0xAF	; 175
  5a:	65 63       	ori	r22, 0x35	; 53
  5c:	74 73       	andi	r23, 0x34	; 52
  5e:	5c 54       	subi	r21, 0x4C	; 76
  60:	57 49       	sbci	r21, 0x97	; 151
  62:	5f 49       	sbci	r21, 0x9F	; 159
  64:	49 43       	sbci	r20, 0x39	; 57
  66:	5f 42       	sbci	r21, 0x2F	; 47
  68:	61 72       	andi	r22, 0x21	; 33
  6a:	6f 6d       	ori	r22, 0xDF	; 223
  6c:	65 74       	andi	r22, 0x45	; 69
  6e:	65 72       	andi	r22, 0x25	; 37
  70:	5f 47       	sbci	r21, 0x7F	; 127
  72:	4e 55       	subi	r20, 0x5E	; 94
  74:	5f 41       	sbci	r21, 0x1F	; 31
  76:	73 6d       	ori	r23, 0xD3	; 211
  78:	00 47       	sbci	r16, 0x70	; 112
  7a:	4e 55       	subi	r20, 0x5E	; 94
  7c:	20 41       	sbci	r18, 0x10	; 16
  7e:	53 20       	and	r5, r3
  80:	32 2e       	mov	r3, r18
  82:	32 36       	cpi	r19, 0x62	; 98
  84:	00 01       	movw	r0, r0
  86:	80 01       	Address 0x00000086 is out of bounds.
.word	0xffff	; ????

Disassembly of section .debug_abbrev:

00000000 <.debug_abbrev>:
   0:	01 11       	cpse	r16, r1
   2:	00 10       	cpse	r0, r0
   4:	06 11       	cpse	r16, r6
   6:	01 12       	cpse	r0, r17
   8:	01 03       	mulsu	r16, r17
   a:	08 1b       	sub	r16, r24
   c:	08 25       	eor	r16, r8
   e:	08 13       	cpse	r16, r24
  10:	05 00       	.word	0x0005	; ????
	...

Disassembly of section .debug_line:

00000000 <.debug_line>:
       0:	53 13       	cpse	r21, r19
       2:	00 00       	nop
       4:	02 00       	.word	0x0002	; ????
       6:	e0 00       	.word	0x00e0	; ????
       8:	00 00       	nop
       a:	02 01       	movw	r0, r4
       c:	fb 0e       	add	r15, r27
       e:	0a 00       	.word	0x000a	; ????
      10:	01 01       	movw	r0, r2
      12:	01 01       	movw	r0, r2
      14:	00 00       	nop
      16:	00 01       	movw	r0, r0
      18:	2e 5c       	subi	r18, 0xCE	; 206
      1a:	63 6f       	ori	r22, 0xF3	; 243
      1c:	64 65       	ori	r22, 0x54	; 84
      1e:	00 61       	ori	r16, 0x10	; 16
      20:	74 6d       	ori	r23, 0xD4	; 212
      22:	65 67       	ori	r22, 0x75	; 117
      24:	61 33       	cpi	r22, 0x31	; 49
      26:	32 38       	cpi	r19, 0x82	; 130
      28:	70 5f       	subi	r23, 0xF0	; 240
      2a:	63 6f       	ori	r22, 0xF3	; 243
      2c:	72 65       	ori	r23, 0x52	; 82
      2e:	00 63       	ori	r16, 0x30	; 48
      30:	6f 6e       	ori	r22, 0xEF	; 239
      32:	76 65       	ori	r23, 0x56	; 86
      34:	72 74       	andi	r23, 0x42	; 66
      36:	65 72       	andi	r22, 0x25	; 37
      38:	73 00       	.word	0x0073	; ????
      3a:	61 72       	andi	r22, 0x21	; 33
      3c:	64 75       	andi	r22, 0x54	; 84
      3e:	69 6e       	ori	r22, 0xE9	; 233
      40:	6f 5f       	subi	r22, 0xFF	; 255
      42:	63 6f       	ori	r22, 0xF3	; 243
      44:	72 65       	ori	r23, 0x52	; 82
      46:	00 6d       	ori	r16, 0xD0	; 208
      48:	61 74       	andi	r22, 0x41	; 65
      4a:	68 00       	.word	0x0068	; ????
      4c:	62 6d       	ori	r22, 0xD2	; 210
      4e:	70 5f       	subi	r23, 0xF0	; 240
      50:	30 38       	cpi	r19, 0x80	; 128
      52:	35 5f       	subi	r19, 0xF5	; 245
      54:	6d 6f       	ori	r22, 0xFD	; 253
      56:	64 75       	andi	r22, 0x54	; 84
      58:	6c 65       	ori	r22, 0x5C	; 92
      5a:	00 00       	nop
      5c:	6d 61       	ori	r22, 0x1D	; 29
      5e:	69 6e       	ori	r22, 0xE9	; 233
      60:	2e 73       	andi	r18, 0x3E	; 62
      62:	00 01       	movw	r0, r0
      64:	00 00       	nop
      66:	77 61       	ori	r23, 0x17	; 23
      68:	74 63       	ori	r23, 0x34	; 52
      6a:	68 64       	ori	r22, 0x48	; 72
      6c:	6f 67       	ori	r22, 0x7F	; 127
      6e:	2e 69       	ori	r18, 0x9E	; 158
      70:	6e 63       	ori	r22, 0x3E	; 62
      72:	00 02       	muls	r16, r16
      74:	00 00       	nop
      76:	74 77       	andi	r23, 0x74	; 116
      78:	69 2e       	mov	r6, r25
      7a:	69 6e       	ori	r22, 0xE9	; 233
      7c:	63 00       	.word	0x0063	; ????
      7e:	02 00       	.word	0x0002	; ????
      80:	00 73       	andi	r16, 0x30	; 48
      82:	65 74       	andi	r22, 0x45	; 69
      84:	5f 73       	andi	r21, 0x3F	; 63
      86:	6c 65       	ori	r22, 0x5C	; 92
      88:	65 70       	andi	r22, 0x05	; 5
      8a:	5f 6d       	ori	r21, 0xDF	; 223
      8c:	6f 64       	ori	r22, 0x4F	; 79
      8e:	65 2e       	mov	r6, r21
      90:	69 6e       	ori	r22, 0xE9	; 233
      92:	63 00       	.word	0x0063	; ????
      94:	02 00       	.word	0x0002	; ????
      96:	00 6e       	ori	r16, 0xE0	; 224
      98:	75 6d       	ori	r23, 0xD5	; 213
      9a:	65 72       	andi	r22, 0x25	; 37
      9c:	69 63       	ori	r22, 0x39	; 57
      9e:	5f 63       	ori	r21, 0x3F	; 63
      a0:	6f 6e       	ori	r22, 0xEF	; 239
      a2:	76 65       	ori	r23, 0x56	; 86
      a4:	74 72       	andi	r23, 0x24	; 36
      a6:	65 72       	andi	r22, 0x25	; 37
      a8:	73 2e       	mov	r7, r19
      aa:	69 6e       	ori	r22, 0xE9	; 233
      ac:	63 00       	.word	0x0063	; ????
      ae:	03 00       	.word	0x0003	; ????
      b0:	00 75       	andi	r16, 0x50	; 80
      b2:	73 61       	ori	r23, 0x13	; 19
      b4:	72 74       	andi	r23, 0x42	; 66
      b6:	2e 69       	ori	r18, 0x9E	; 158
      b8:	6e 63       	ori	r22, 0x3E	; 62
      ba:	00 02       	muls	r16, r16
      bc:	00 00       	nop
      be:	6c 65       	ori	r22, 0x5C	; 92
      c0:	64 2e       	mov	r6, r20
      c2:	69 6e       	ori	r22, 0xE9	; 233
      c4:	63 00       	.word	0x0063	; ????
      c6:	04 00       	.word	0x0004	; ????
      c8:	00 6d       	ori	r16, 0xD0	; 208
      ca:	61 74       	andi	r22, 0x41	; 65
      cc:	68 31       	cpi	r22, 0x18	; 24
      ce:	36 62       	ori	r19, 0x26	; 38
      d0:	69 74       	andi	r22, 0x49	; 73
      d2:	2e 69       	ori	r18, 0x9E	; 158
      d4:	6e 63       	ori	r22, 0x3E	; 62
      d6:	00 05       	cpc	r16, r0
      d8:	00 00       	nop
      da:	62 6d       	ori	r22, 0xD2	; 210
      dc:	70 5f       	subi	r23, 0xF0	; 240
      de:	30 38       	cpi	r19, 0x80	; 128
      e0:	35 2e       	mov	r3, r21
      e2:	69 6e       	ori	r22, 0xE9	; 233
      e4:	63 00       	.word	0x0063	; ????
      e6:	06 00       	.word	0x0006	; ????
      e8:	00 00       	nop
      ea:	00 05       	cpc	r16, r0
      ec:	02 00       	.word	0x0002	; ????
      ee:	00 00       	nop
      f0:	00 14       	cp	r0, r0
      f2:	03 01       	movw	r0, r6
      f4:	09 04       	cpc	r0, r9
      f6:	00 01       	movw	r0, r0
      f8:	03 01       	movw	r0, r6
      fa:	09 04       	cpc	r0, r9
      fc:	00 01       	movw	r0, r0
      fe:	03 01       	movw	r0, r6
     100:	09 04       	cpc	r0, r9
     102:	00 01       	movw	r0, r0
     104:	03 01       	movw	r0, r6
     106:	09 04       	cpc	r0, r9
     108:	00 01       	movw	r0, r0
     10a:	03 01       	movw	r0, r6
     10c:	09 04       	cpc	r0, r9
     10e:	00 01       	movw	r0, r0
     110:	03 01       	movw	r0, r6
     112:	09 04       	cpc	r0, r9
     114:	00 01       	movw	r0, r0
     116:	03 01       	movw	r0, r6
     118:	09 04       	cpc	r0, r9
     11a:	00 01       	movw	r0, r0
     11c:	03 01       	movw	r0, r6
     11e:	09 04       	cpc	r0, r9
     120:	00 01       	movw	r0, r0
     122:	03 01       	movw	r0, r6
     124:	09 04       	cpc	r0, r9
     126:	00 01       	movw	r0, r0
     128:	03 01       	movw	r0, r6
     12a:	09 04       	cpc	r0, r9
     12c:	00 01       	movw	r0, r0
     12e:	03 01       	movw	r0, r6
     130:	09 04       	cpc	r0, r9
     132:	00 01       	movw	r0, r0
     134:	03 01       	movw	r0, r6
     136:	09 04       	cpc	r0, r9
     138:	00 01       	movw	r0, r0
     13a:	03 01       	movw	r0, r6
     13c:	09 04       	cpc	r0, r9
     13e:	00 01       	movw	r0, r0
     140:	03 01       	movw	r0, r6
     142:	09 04       	cpc	r0, r9
     144:	00 01       	movw	r0, r0
     146:	03 01       	movw	r0, r6
     148:	09 04       	cpc	r0, r9
     14a:	00 01       	movw	r0, r0
     14c:	03 01       	movw	r0, r6
     14e:	09 04       	cpc	r0, r9
     150:	00 01       	movw	r0, r0
     152:	03 01       	movw	r0, r6
     154:	09 04       	cpc	r0, r9
     156:	00 01       	movw	r0, r0
     158:	03 01       	movw	r0, r6
     15a:	09 04       	cpc	r0, r9
     15c:	00 01       	movw	r0, r0
     15e:	03 01       	movw	r0, r6
     160:	09 04       	cpc	r0, r9
     162:	00 01       	movw	r0, r0
     164:	03 01       	movw	r0, r6
     166:	09 04       	cpc	r0, r9
     168:	00 01       	movw	r0, r0
     16a:	03 01       	movw	r0, r6
     16c:	09 04       	cpc	r0, r9
     16e:	00 01       	movw	r0, r0
     170:	03 01       	movw	r0, r6
     172:	09 04       	cpc	r0, r9
     174:	00 01       	movw	r0, r0
     176:	03 01       	movw	r0, r6
     178:	09 04       	cpc	r0, r9
     17a:	00 01       	movw	r0, r0
     17c:	03 01       	movw	r0, r6
     17e:	09 04       	cpc	r0, r9
     180:	00 01       	movw	r0, r0
     182:	03 01       	movw	r0, r6
     184:	09 04       	cpc	r0, r9
     186:	00 01       	movw	r0, r0
     188:	04 02       	muls	r16, r20
     18a:	03 6c       	ori	r16, 0xC3	; 195
     18c:	09 04       	cpc	r0, r9
     18e:	00 01       	movw	r0, r0
     190:	03 05       	cpc	r16, r3
     192:	09 02       	muls	r16, r25
     194:	00 01       	movw	r0, r0
     196:	03 01       	movw	r0, r6
     198:	09 02       	muls	r16, r25
     19a:	00 01       	movw	r0, r0
     19c:	03 01       	movw	r0, r6
     19e:	09 04       	cpc	r0, r9
     1a0:	00 01       	movw	r0, r0
     1a2:	03 01       	movw	r0, r6
     1a4:	09 02       	muls	r16, r25
     1a6:	00 01       	movw	r0, r0
     1a8:	03 01       	movw	r0, r6
     1aa:	09 04       	cpc	r0, r9
     1ac:	00 01       	movw	r0, r0
     1ae:	03 01       	movw	r0, r6
     1b0:	09 02       	muls	r16, r25
     1b2:	00 01       	movw	r0, r0
     1b4:	03 05       	cpc	r16, r3
     1b6:	09 02       	muls	r16, r25
     1b8:	00 01       	movw	r0, r0
     1ba:	03 01       	movw	r0, r6
     1bc:	09 02       	muls	r16, r25
     1be:	00 01       	movw	r0, r0
     1c0:	03 01       	movw	r0, r6
     1c2:	09 02       	muls	r16, r25
     1c4:	00 01       	movw	r0, r0
     1c6:	03 01       	movw	r0, r6
     1c8:	09 04       	cpc	r0, r9
     1ca:	00 01       	movw	r0, r0
     1cc:	03 01       	movw	r0, r6
     1ce:	09 02       	muls	r16, r25
     1d0:	00 01       	movw	r0, r0
     1d2:	03 01       	movw	r0, r6
     1d4:	09 04       	cpc	r0, r9
     1d6:	00 01       	movw	r0, r0
     1d8:	03 01       	movw	r0, r6
     1da:	09 02       	muls	r16, r25
     1dc:	00 01       	movw	r0, r0
     1de:	03 03       	mulsu	r16, r19
     1e0:	09 02       	muls	r16, r25
     1e2:	00 01       	movw	r0, r0
     1e4:	03 01       	movw	r0, r6
     1e6:	09 02       	muls	r16, r25
     1e8:	00 01       	movw	r0, r0
     1ea:	03 01       	movw	r0, r6
     1ec:	09 04       	cpc	r0, r9
     1ee:	00 01       	movw	r0, r0
     1f0:	03 01       	movw	r0, r6
     1f2:	09 02       	muls	r16, r25
     1f4:	00 01       	movw	r0, r0
     1f6:	03 01       	movw	r0, r6
     1f8:	09 04       	cpc	r0, r9
     1fa:	00 01       	movw	r0, r0
     1fc:	03 01       	movw	r0, r6
     1fe:	09 02       	muls	r16, r25
     200:	00 01       	movw	r0, r0
     202:	04 03       	mulsu	r16, r20
     204:	03 78       	andi	r16, 0x83	; 131
     206:	09 02       	muls	r16, r25
     208:	00 01       	movw	r0, r0
     20a:	03 02       	muls	r16, r19
     20c:	09 02       	muls	r16, r25
     20e:	00 01       	movw	r0, r0
     210:	03 01       	movw	r0, r6
     212:	09 04       	cpc	r0, r9
     214:	00 01       	movw	r0, r0
     216:	03 01       	movw	r0, r6
     218:	09 02       	muls	r16, r25
     21a:	00 01       	movw	r0, r0
     21c:	03 01       	movw	r0, r6
     21e:	09 02       	muls	r16, r25
     220:	00 01       	movw	r0, r0
     222:	03 01       	movw	r0, r6
     224:	09 02       	muls	r16, r25
     226:	00 01       	movw	r0, r0
     228:	03 03       	mulsu	r16, r19
     22a:	09 04       	cpc	r0, r9
     22c:	00 01       	movw	r0, r0
     22e:	03 01       	movw	r0, r6
     230:	09 04       	cpc	r0, r9
     232:	00 01       	movw	r0, r0
     234:	03 02       	muls	r16, r19
     236:	09 04       	cpc	r0, r9
     238:	00 01       	movw	r0, r0
     23a:	03 01       	movw	r0, r6
     23c:	09 02       	muls	r16, r25
     23e:	00 01       	movw	r0, r0
     240:	03 02       	muls	r16, r19
     242:	09 02       	muls	r16, r25
     244:	00 01       	movw	r0, r0
     246:	03 01       	movw	r0, r6
     248:	09 02       	muls	r16, r25
     24a:	00 01       	movw	r0, r0
     24c:	03 05       	cpc	r16, r3
     24e:	09 02       	muls	r16, r25
     250:	00 01       	movw	r0, r0
     252:	03 02       	muls	r16, r19
     254:	09 02       	muls	r16, r25
     256:	00 01       	movw	r0, r0
     258:	03 02       	muls	r16, r19
     25a:	09 04       	cpc	r0, r9
     25c:	00 01       	movw	r0, r0
     25e:	03 01       	movw	r0, r6
     260:	09 02       	muls	r16, r25
     262:	00 01       	movw	r0, r0
     264:	03 03       	mulsu	r16, r19
     266:	09 04       	cpc	r0, r9
     268:	00 01       	movw	r0, r0
     26a:	03 01       	movw	r0, r6
     26c:	09 04       	cpc	r0, r9
     26e:	00 01       	movw	r0, r0
     270:	03 01       	movw	r0, r6
     272:	09 02       	muls	r16, r25
     274:	00 01       	movw	r0, r0
     276:	03 02       	muls	r16, r19
     278:	09 02       	muls	r16, r25
     27a:	00 01       	movw	r0, r0
     27c:	03 01       	movw	r0, r6
     27e:	09 02       	muls	r16, r25
     280:	00 01       	movw	r0, r0
     282:	03 06       	cpc	r0, r19
     284:	09 02       	muls	r16, r25
     286:	00 01       	movw	r0, r0
     288:	03 02       	muls	r16, r19
     28a:	09 02       	muls	r16, r25
     28c:	00 01       	movw	r0, r0
     28e:	03 03       	mulsu	r16, r19
     290:	09 04       	cpc	r0, r9
     292:	00 01       	movw	r0, r0
     294:	03 01       	movw	r0, r6
     296:	09 02       	muls	r16, r25
     298:	00 01       	movw	r0, r0
     29a:	03 03       	mulsu	r16, r19
     29c:	09 04       	cpc	r0, r9
     29e:	00 01       	movw	r0, r0
     2a0:	03 01       	movw	r0, r6
     2a2:	09 04       	cpc	r0, r9
     2a4:	00 01       	movw	r0, r0
     2a6:	03 01       	movw	r0, r6
     2a8:	09 02       	muls	r16, r25
     2aa:	00 01       	movw	r0, r0
     2ac:	03 01       	movw	r0, r6
     2ae:	09 02       	muls	r16, r25
     2b0:	00 01       	movw	r0, r0
     2b2:	03 01       	movw	r0, r6
     2b4:	09 02       	muls	r16, r25
     2b6:	00 01       	movw	r0, r0
     2b8:	03 06       	cpc	r0, r19
     2ba:	09 02       	muls	r16, r25
     2bc:	00 01       	movw	r0, r0
     2be:	03 01       	movw	r0, r6
     2c0:	09 02       	muls	r16, r25
     2c2:	00 01       	movw	r0, r0
     2c4:	03 01       	movw	r0, r6
     2c6:	09 04       	cpc	r0, r9
     2c8:	00 01       	movw	r0, r0
     2ca:	03 01       	movw	r0, r6
     2cc:	09 02       	muls	r16, r25
     2ce:	00 01       	movw	r0, r0
     2d0:	03 01       	movw	r0, r6
     2d2:	09 04       	cpc	r0, r9
     2d4:	00 01       	movw	r0, r0
     2d6:	03 01       	movw	r0, r6
     2d8:	09 02       	muls	r16, r25
     2da:	00 01       	movw	r0, r0
     2dc:	03 07       	cpc	r16, r19
     2de:	09 02       	muls	r16, r25
     2e0:	00 01       	movw	r0, r0
     2e2:	03 01       	movw	r0, r6
     2e4:	09 04       	cpc	r0, r9
     2e6:	00 01       	movw	r0, r0
     2e8:	03 2d       	mov	r16, r3
     2ea:	09 02       	muls	r16, r25
     2ec:	00 01       	movw	r0, r0
     2ee:	03 02       	muls	r16, r19
     2f0:	09 02       	muls	r16, r25
     2f2:	00 01       	movw	r0, r0
     2f4:	03 01       	movw	r0, r6
     2f6:	09 04       	cpc	r0, r9
     2f8:	00 01       	movw	r0, r0
     2fa:	03 03       	mulsu	r16, r19
     2fc:	09 02       	muls	r16, r25
     2fe:	00 01       	movw	r0, r0
     300:	03 01       	movw	r0, r6
     302:	09 04       	cpc	r0, r9
     304:	00 01       	movw	r0, r0
     306:	03 01       	movw	r0, r6
     308:	09 02       	muls	r16, r25
     30a:	00 01       	movw	r0, r0
     30c:	03 02       	muls	r16, r19
     30e:	09 02       	muls	r16, r25
     310:	00 01       	movw	r0, r0
     312:	03 01       	movw	r0, r6
     314:	09 02       	muls	r16, r25
     316:	00 01       	movw	r0, r0
     318:	03 04       	cpc	r0, r3
     31a:	09 02       	muls	r16, r25
     31c:	00 01       	movw	r0, r0
     31e:	03 01       	movw	r0, r6
     320:	09 02       	muls	r16, r25
     322:	00 01       	movw	r0, r0
     324:	03 03       	mulsu	r16, r19
     326:	09 02       	muls	r16, r25
     328:	00 01       	movw	r0, r0
     32a:	03 01       	movw	r0, r6
     32c:	09 04       	cpc	r0, r9
     32e:	00 01       	movw	r0, r0
     330:	03 01       	movw	r0, r6
     332:	09 02       	muls	r16, r25
     334:	00 01       	movw	r0, r0
     336:	03 01       	movw	r0, r6
     338:	09 02       	muls	r16, r25
     33a:	00 01       	movw	r0, r0
     33c:	03 02       	muls	r16, r19
     33e:	09 04       	cpc	r0, r9
     340:	00 01       	movw	r0, r0
     342:	03 01       	movw	r0, r6
     344:	09 02       	muls	r16, r25
     346:	00 01       	movw	r0, r0
     348:	03 04       	cpc	r0, r3
     34a:	09 02       	muls	r16, r25
     34c:	00 01       	movw	r0, r0
     34e:	03 02       	muls	r16, r19
     350:	09 04       	cpc	r0, r9
     352:	00 01       	movw	r0, r0
     354:	03 01       	movw	r0, r6
     356:	09 02       	muls	r16, r25
     358:	00 01       	movw	r0, r0
     35a:	03 05       	cpc	r16, r3
     35c:	09 02       	muls	r16, r25
     35e:	00 01       	movw	r0, r0
     360:	03 01       	movw	r0, r6
     362:	09 02       	muls	r16, r25
     364:	00 01       	movw	r0, r0
     366:	03 01       	movw	r0, r6
     368:	09 04       	cpc	r0, r9
     36a:	00 01       	movw	r0, r0
     36c:	03 01       	movw	r0, r6
     36e:	09 02       	muls	r16, r25
     370:	00 01       	movw	r0, r0
     372:	03 01       	movw	r0, r6
     374:	09 04       	cpc	r0, r9
     376:	00 01       	movw	r0, r0
     378:	03 01       	movw	r0, r6
     37a:	09 02       	muls	r16, r25
     37c:	00 01       	movw	r0, r0
     37e:	03 06       	cpc	r0, r19
     380:	09 02       	muls	r16, r25
     382:	00 01       	movw	r0, r0
     384:	03 01       	movw	r0, r6
     386:	09 02       	muls	r16, r25
     388:	00 01       	movw	r0, r0
     38a:	03 01       	movw	r0, r6
     38c:	09 02       	muls	r16, r25
     38e:	00 01       	movw	r0, r0
     390:	03 01       	movw	r0, r6
     392:	09 02       	muls	r16, r25
     394:	00 01       	movw	r0, r0
     396:	03 01       	movw	r0, r6
     398:	09 02       	muls	r16, r25
     39a:	00 01       	movw	r0, r0
     39c:	03 01       	movw	r0, r6
     39e:	09 02       	muls	r16, r25
     3a0:	00 01       	movw	r0, r0
     3a2:	03 05       	cpc	r16, r3
     3a4:	09 02       	muls	r16, r25
     3a6:	00 01       	movw	r0, r0
     3a8:	03 01       	movw	r0, r6
     3aa:	09 02       	muls	r16, r25
     3ac:	00 01       	movw	r0, r0
     3ae:	03 01       	movw	r0, r6
     3b0:	09 04       	cpc	r0, r9
     3b2:	00 01       	movw	r0, r0
     3b4:	03 01       	movw	r0, r6
     3b6:	09 02       	muls	r16, r25
     3b8:	00 01       	movw	r0, r0
     3ba:	03 01       	movw	r0, r6
     3bc:	09 04       	cpc	r0, r9
     3be:	00 01       	movw	r0, r0
     3c0:	03 01       	movw	r0, r6
     3c2:	09 02       	muls	r16, r25
     3c4:	00 01       	movw	r0, r0
     3c6:	03 04       	cpc	r0, r3
     3c8:	09 02       	muls	r16, r25
     3ca:	00 01       	movw	r0, r0
     3cc:	03 01       	movw	r0, r6
     3ce:	09 02       	muls	r16, r25
     3d0:	00 01       	movw	r0, r0
     3d2:	03 01       	movw	r0, r6
     3d4:	09 04       	cpc	r0, r9
     3d6:	00 01       	movw	r0, r0
     3d8:	03 01       	movw	r0, r6
     3da:	09 02       	muls	r16, r25
     3dc:	00 01       	movw	r0, r0
     3de:	03 01       	movw	r0, r6
     3e0:	09 04       	cpc	r0, r9
     3e2:	00 01       	movw	r0, r0
     3e4:	03 01       	movw	r0, r6
     3e6:	09 02       	muls	r16, r25
     3e8:	00 01       	movw	r0, r0
     3ea:	03 04       	cpc	r0, r3
     3ec:	09 02       	muls	r16, r25
     3ee:	00 01       	movw	r0, r0
     3f0:	03 01       	movw	r0, r6
     3f2:	09 02       	muls	r16, r25
     3f4:	00 01       	movw	r0, r0
     3f6:	03 01       	movw	r0, r6
     3f8:	09 04       	cpc	r0, r9
     3fa:	00 01       	movw	r0, r0
     3fc:	03 01       	movw	r0, r6
     3fe:	09 02       	muls	r16, r25
     400:	00 01       	movw	r0, r0
     402:	03 01       	movw	r0, r6
     404:	09 04       	cpc	r0, r9
     406:	00 01       	movw	r0, r0
     408:	03 01       	movw	r0, r6
     40a:	09 02       	muls	r16, r25
     40c:	00 01       	movw	r0, r0
     40e:	03 05       	cpc	r16, r3
     410:	09 02       	muls	r16, r25
     412:	00 01       	movw	r0, r0
     414:	03 01       	movw	r0, r6
     416:	09 02       	muls	r16, r25
     418:	00 01       	movw	r0, r0
     41a:	03 01       	movw	r0, r6
     41c:	09 04       	cpc	r0, r9
     41e:	00 01       	movw	r0, r0
     420:	03 01       	movw	r0, r6
     422:	09 02       	muls	r16, r25
     424:	00 01       	movw	r0, r0
     426:	03 01       	movw	r0, r6
     428:	09 04       	cpc	r0, r9
     42a:	00 01       	movw	r0, r0
     42c:	03 01       	movw	r0, r6
     42e:	09 02       	muls	r16, r25
     430:	00 01       	movw	r0, r0
     432:	04 04       	cpc	r0, r4
     434:	03 9b       	sbis	0x00, 3	; 0
     436:	7e 09       	sbc	r23, r14
     438:	02 00       	.word	0x0002	; ????
     43a:	01 03       	mulsu	r16, r17
     43c:	01 09       	sbc	r16, r1
     43e:	02 00       	.word	0x0002	; ????
     440:	01 04       	cpc	r0, r1
     442:	05 03       	mulsu	r16, r21
     444:	00 09       	sbc	r16, r0
     446:	02 00       	.word	0x0002	; ????
     448:	01 03       	mulsu	r16, r17
     44a:	01 09       	sbc	r16, r1
     44c:	02 00       	.word	0x0002	; ????
     44e:	01 03       	mulsu	r16, r17
     450:	02 09       	sbc	r16, r2
     452:	02 00       	.word	0x0002	; ????
     454:	01 03       	mulsu	r16, r17
     456:	01 09       	sbc	r16, r1
     458:	02 00       	.word	0x0002	; ????
     45a:	01 03       	mulsu	r16, r17
     45c:	03 09       	sbc	r16, r3
     45e:	02 00       	.word	0x0002	; ????
     460:	01 03       	mulsu	r16, r17
     462:	01 09       	sbc	r16, r1
     464:	02 00       	.word	0x0002	; ????
     466:	01 03       	mulsu	r16, r17
     468:	03 09       	sbc	r16, r3
     46a:	02 00       	.word	0x0002	; ????
     46c:	01 03       	mulsu	r16, r17
     46e:	01 09       	sbc	r16, r1
     470:	02 00       	.word	0x0002	; ????
     472:	01 03       	mulsu	r16, r17
     474:	02 09       	sbc	r16, r2
     476:	02 00       	.word	0x0002	; ????
     478:	01 03       	mulsu	r16, r17
     47a:	02 09       	sbc	r16, r2
     47c:	02 00       	.word	0x0002	; ????
     47e:	01 03       	mulsu	r16, r17
     480:	01 09       	sbc	r16, r1
     482:	02 00       	.word	0x0002	; ????
     484:	01 03       	mulsu	r16, r17
     486:	01 09       	sbc	r16, r1
     488:	02 00       	.word	0x0002	; ????
     48a:	01 03       	mulsu	r16, r17
     48c:	03 09       	sbc	r16, r3
     48e:	02 00       	.word	0x0002	; ????
     490:	01 03       	mulsu	r16, r17
     492:	01 09       	sbc	r16, r1
     494:	02 00       	.word	0x0002	; ????
     496:	01 03       	mulsu	r16, r17
     498:	01 09       	sbc	r16, r1
     49a:	02 00       	.word	0x0002	; ????
     49c:	01 03       	mulsu	r16, r17
     49e:	02 09       	sbc	r16, r2
     4a0:	02 00       	.word	0x0002	; ????
     4a2:	01 03       	mulsu	r16, r17
     4a4:	01 09       	sbc	r16, r1
     4a6:	02 00       	.word	0x0002	; ????
     4a8:	01 03       	mulsu	r16, r17
     4aa:	01 09       	sbc	r16, r1
     4ac:	02 00       	.word	0x0002	; ????
     4ae:	01 03       	mulsu	r16, r17
     4b0:	04 09       	sbc	r16, r4
     4b2:	02 00       	.word	0x0002	; ????
     4b4:	01 03       	mulsu	r16, r17
     4b6:	03 09       	sbc	r16, r3
     4b8:	02 00       	.word	0x0002	; ????
     4ba:	01 03       	mulsu	r16, r17
     4bc:	01 09       	sbc	r16, r1
     4be:	02 00       	.word	0x0002	; ????
     4c0:	01 03       	mulsu	r16, r17
     4c2:	01 09       	sbc	r16, r1
     4c4:	02 00       	.word	0x0002	; ????
     4c6:	01 03       	mulsu	r16, r17
     4c8:	02 09       	sbc	r16, r2
     4ca:	02 00       	.word	0x0002	; ????
     4cc:	01 03       	mulsu	r16, r17
     4ce:	01 09       	sbc	r16, r1
     4d0:	02 00       	.word	0x0002	; ????
     4d2:	01 03       	mulsu	r16, r17
     4d4:	01 09       	sbc	r16, r1
     4d6:	02 00       	.word	0x0002	; ????
     4d8:	01 03       	mulsu	r16, r17
     4da:	02 09       	sbc	r16, r2
     4dc:	02 00       	.word	0x0002	; ????
     4de:	01 03       	mulsu	r16, r17
     4e0:	01 09       	sbc	r16, r1
     4e2:	02 00       	.word	0x0002	; ????
     4e4:	01 03       	mulsu	r16, r17
     4e6:	01 09       	sbc	r16, r1
     4e8:	02 00       	.word	0x0002	; ????
     4ea:	01 03       	mulsu	r16, r17
     4ec:	02 09       	sbc	r16, r2
     4ee:	02 00       	.word	0x0002	; ????
     4f0:	01 03       	mulsu	r16, r17
     4f2:	01 09       	sbc	r16, r1
     4f4:	02 00       	.word	0x0002	; ????
     4f6:	01 03       	mulsu	r16, r17
     4f8:	01 09       	sbc	r16, r1
     4fa:	02 00       	.word	0x0002	; ????
     4fc:	01 03       	mulsu	r16, r17
     4fe:	02 09       	sbc	r16, r2
     500:	02 00       	.word	0x0002	; ????
     502:	01 03       	mulsu	r16, r17
     504:	01 09       	sbc	r16, r1
     506:	02 00       	.word	0x0002	; ????
     508:	01 03       	mulsu	r16, r17
     50a:	01 09       	sbc	r16, r1
     50c:	02 00       	.word	0x0002	; ????
     50e:	01 03       	mulsu	r16, r17
     510:	02 09       	sbc	r16, r2
     512:	02 00       	.word	0x0002	; ????
     514:	01 03       	mulsu	r16, r17
     516:	01 09       	sbc	r16, r1
     518:	02 00       	.word	0x0002	; ????
     51a:	01 03       	mulsu	r16, r17
     51c:	01 09       	sbc	r16, r1
     51e:	02 00       	.word	0x0002	; ????
     520:	01 03       	mulsu	r16, r17
     522:	02 09       	sbc	r16, r2
     524:	02 00       	.word	0x0002	; ????
     526:	01 03       	mulsu	r16, r17
     528:	01 09       	sbc	r16, r1
     52a:	02 00       	.word	0x0002	; ????
     52c:	01 03       	mulsu	r16, r17
     52e:	01 09       	sbc	r16, r1
     530:	02 00       	.word	0x0002	; ????
     532:	01 03       	mulsu	r16, r17
     534:	02 09       	sbc	r16, r2
     536:	02 00       	.word	0x0002	; ????
     538:	01 03       	mulsu	r16, r17
     53a:	01 09       	sbc	r16, r1
     53c:	02 00       	.word	0x0002	; ????
     53e:	01 03       	mulsu	r16, r17
     540:	01 09       	sbc	r16, r1
     542:	02 00       	.word	0x0002	; ????
     544:	01 03       	mulsu	r16, r17
     546:	02 09       	sbc	r16, r2
     548:	02 00       	.word	0x0002	; ????
     54a:	01 03       	mulsu	r16, r17
     54c:	01 09       	sbc	r16, r1
     54e:	02 00       	.word	0x0002	; ????
     550:	01 03       	mulsu	r16, r17
     552:	01 09       	sbc	r16, r1
     554:	02 00       	.word	0x0002	; ????
     556:	01 03       	mulsu	r16, r17
     558:	02 09       	sbc	r16, r2
     55a:	02 00       	.word	0x0002	; ????
     55c:	01 03       	mulsu	r16, r17
     55e:	01 09       	sbc	r16, r1
     560:	02 00       	.word	0x0002	; ????
     562:	01 03       	mulsu	r16, r17
     564:	01 09       	sbc	r16, r1
     566:	02 00       	.word	0x0002	; ????
     568:	01 03       	mulsu	r16, r17
     56a:	02 09       	sbc	r16, r2
     56c:	02 00       	.word	0x0002	; ????
     56e:	01 03       	mulsu	r16, r17
     570:	01 09       	sbc	r16, r1
     572:	02 00       	.word	0x0002	; ????
     574:	01 03       	mulsu	r16, r17
     576:	01 09       	sbc	r16, r1
     578:	02 00       	.word	0x0002	; ????
     57a:	01 03       	mulsu	r16, r17
     57c:	02 09       	sbc	r16, r2
     57e:	02 00       	.word	0x0002	; ????
     580:	01 03       	mulsu	r16, r17
     582:	01 09       	sbc	r16, r1
     584:	02 00       	.word	0x0002	; ????
     586:	01 03       	mulsu	r16, r17
     588:	01 09       	sbc	r16, r1
     58a:	02 00       	.word	0x0002	; ????
     58c:	01 03       	mulsu	r16, r17
     58e:	02 09       	sbc	r16, r2
     590:	02 00       	.word	0x0002	; ????
     592:	01 03       	mulsu	r16, r17
     594:	01 09       	sbc	r16, r1
     596:	02 00       	.word	0x0002	; ????
     598:	01 03       	mulsu	r16, r17
     59a:	01 09       	sbc	r16, r1
     59c:	02 00       	.word	0x0002	; ????
     59e:	01 03       	mulsu	r16, r17
     5a0:	02 09       	sbc	r16, r2
     5a2:	02 00       	.word	0x0002	; ????
     5a4:	01 03       	mulsu	r16, r17
     5a6:	01 09       	sbc	r16, r1
     5a8:	02 00       	.word	0x0002	; ????
     5aa:	01 03       	mulsu	r16, r17
     5ac:	01 09       	sbc	r16, r1
     5ae:	02 00       	.word	0x0002	; ????
     5b0:	01 03       	mulsu	r16, r17
     5b2:	02 09       	sbc	r16, r2
     5b4:	02 00       	.word	0x0002	; ????
     5b6:	01 03       	mulsu	r16, r17
     5b8:	01 09       	sbc	r16, r1
     5ba:	02 00       	.word	0x0002	; ????
     5bc:	01 03       	mulsu	r16, r17
     5be:	01 09       	sbc	r16, r1
     5c0:	02 00       	.word	0x0002	; ????
     5c2:	01 03       	mulsu	r16, r17
     5c4:	02 09       	sbc	r16, r2
     5c6:	02 00       	.word	0x0002	; ????
     5c8:	01 03       	mulsu	r16, r17
     5ca:	03 09       	sbc	r16, r3
     5cc:	02 00       	.word	0x0002	; ????
     5ce:	01 03       	mulsu	r16, r17
     5d0:	01 09       	sbc	r16, r1
     5d2:	02 00       	.word	0x0002	; ????
     5d4:	01 03       	mulsu	r16, r17
     5d6:	01 09       	sbc	r16, r1
     5d8:	02 00       	.word	0x0002	; ????
     5da:	01 04       	cpc	r0, r1
     5dc:	06 03       	mulsu	r16, r22
     5de:	a1 7f       	andi	r26, 0xF1	; 241
     5e0:	09 02       	muls	r16, r25
     5e2:	00 01       	movw	r0, r0
     5e4:	03 02       	muls	r16, r19
     5e6:	09 02       	muls	r16, r25
     5e8:	00 01       	movw	r0, r0
     5ea:	03 03       	mulsu	r16, r19
     5ec:	09 02       	muls	r16, r25
     5ee:	00 01       	movw	r0, r0
     5f0:	03 04       	cpc	r0, r3
     5f2:	09 02       	muls	r16, r25
     5f4:	00 01       	movw	r0, r0
     5f6:	03 01       	movw	r0, r6
     5f8:	09 02       	muls	r16, r25
     5fa:	00 01       	movw	r0, r0
     5fc:	03 06       	cpc	r0, r19
     5fe:	09 04       	cpc	r0, r9
     600:	00 01       	movw	r0, r0
     602:	03 01       	movw	r0, r6
     604:	09 02       	muls	r16, r25
     606:	00 01       	movw	r0, r0
     608:	03 02       	muls	r16, r19
     60a:	09 04       	cpc	r0, r9
     60c:	00 01       	movw	r0, r0
     60e:	03 01       	movw	r0, r6
     610:	09 02       	muls	r16, r25
     612:	00 01       	movw	r0, r0
     614:	03 05       	cpc	r16, r3
     616:	09 02       	muls	r16, r25
     618:	00 01       	movw	r0, r0
     61a:	03 01       	movw	r0, r6
     61c:	09 02       	muls	r16, r25
     61e:	00 01       	movw	r0, r0
     620:	03 01       	movw	r0, r6
     622:	09 04       	cpc	r0, r9
     624:	00 01       	movw	r0, r0
     626:	03 01       	movw	r0, r6
     628:	09 02       	muls	r16, r25
     62a:	00 01       	movw	r0, r0
     62c:	03 01       	movw	r0, r6
     62e:	09 04       	cpc	r0, r9
     630:	00 01       	movw	r0, r0
     632:	03 01       	movw	r0, r6
     634:	09 02       	muls	r16, r25
     636:	00 01       	movw	r0, r0
     638:	03 06       	cpc	r0, r19
     63a:	09 02       	muls	r16, r25
     63c:	00 01       	movw	r0, r0
     63e:	03 03       	mulsu	r16, r19
     640:	09 02       	muls	r16, r25
     642:	00 01       	movw	r0, r0
     644:	03 01       	movw	r0, r6
     646:	09 04       	cpc	r0, r9
     648:	00 01       	movw	r0, r0
     64a:	03 01       	movw	r0, r6
     64c:	09 02       	muls	r16, r25
     64e:	00 01       	movw	r0, r0
     650:	03 03       	mulsu	r16, r19
     652:	09 02       	muls	r16, r25
     654:	00 01       	movw	r0, r0
     656:	03 02       	muls	r16, r19
     658:	09 04       	cpc	r0, r9
     65a:	00 01       	movw	r0, r0
     65c:	03 01       	movw	r0, r6
     65e:	09 02       	muls	r16, r25
     660:	00 01       	movw	r0, r0
     662:	03 06       	cpc	r0, r19
     664:	09 02       	muls	r16, r25
     666:	00 01       	movw	r0, r0
     668:	03 01       	movw	r0, r6
     66a:	09 02       	muls	r16, r25
     66c:	00 01       	movw	r0, r0
     66e:	03 01       	movw	r0, r6
     670:	09 02       	muls	r16, r25
     672:	00 01       	movw	r0, r0
     674:	03 01       	movw	r0, r6
     676:	09 02       	muls	r16, r25
     678:	00 01       	movw	r0, r0
     67a:	03 01       	movw	r0, r6
     67c:	09 02       	muls	r16, r25
     67e:	00 01       	movw	r0, r0
     680:	03 08       	sbc	r0, r3
     682:	09 02       	muls	r16, r25
     684:	00 01       	movw	r0, r0
     686:	03 02       	muls	r16, r19
     688:	09 02       	muls	r16, r25
     68a:	00 01       	movw	r0, r0
     68c:	03 01       	movw	r0, r6
     68e:	09 02       	muls	r16, r25
     690:	00 01       	movw	r0, r0
     692:	03 02       	muls	r16, r19
     694:	09 02       	muls	r16, r25
     696:	00 01       	movw	r0, r0
     698:	03 01       	movw	r0, r6
     69a:	09 04       	cpc	r0, r9
     69c:	00 01       	movw	r0, r0
     69e:	03 02       	muls	r16, r19
     6a0:	09 04       	cpc	r0, r9
     6a2:	00 01       	movw	r0, r0
     6a4:	03 01       	movw	r0, r6
     6a6:	09 02       	muls	r16, r25
     6a8:	00 01       	movw	r0, r0
     6aa:	03 18       	sub	r0, r3
     6ac:	09 02       	muls	r16, r25
     6ae:	00 01       	movw	r0, r0
     6b0:	03 01       	movw	r0, r6
     6b2:	09 02       	muls	r16, r25
     6b4:	00 01       	movw	r0, r0
     6b6:	03 01       	movw	r0, r6
     6b8:	09 04       	cpc	r0, r9
     6ba:	00 01       	movw	r0, r0
     6bc:	03 01       	movw	r0, r6
     6be:	09 02       	muls	r16, r25
     6c0:	00 01       	movw	r0, r0
     6c2:	03 01       	movw	r0, r6
     6c4:	09 04       	cpc	r0, r9
     6c6:	00 01       	movw	r0, r0
     6c8:	03 01       	movw	r0, r6
     6ca:	09 02       	muls	r16, r25
     6cc:	00 01       	movw	r0, r0
     6ce:	03 05       	cpc	r16, r3
     6d0:	09 02       	muls	r16, r25
     6d2:	00 01       	movw	r0, r0
     6d4:	03 01       	movw	r0, r6
     6d6:	09 02       	muls	r16, r25
     6d8:	00 01       	movw	r0, r0
     6da:	03 01       	movw	r0, r6
     6dc:	09 04       	cpc	r0, r9
     6de:	00 01       	movw	r0, r0
     6e0:	03 01       	movw	r0, r6
     6e2:	09 02       	muls	r16, r25
     6e4:	00 01       	movw	r0, r0
     6e6:	03 01       	movw	r0, r6
     6e8:	09 02       	muls	r16, r25
     6ea:	00 01       	movw	r0, r0
     6ec:	03 01       	movw	r0, r6
     6ee:	09 02       	muls	r16, r25
     6f0:	00 01       	movw	r0, r0
     6f2:	03 02       	muls	r16, r19
     6f4:	09 02       	muls	r16, r25
     6f6:	00 01       	movw	r0, r0
     6f8:	03 02       	muls	r16, r19
     6fa:	09 02       	muls	r16, r25
     6fc:	00 01       	movw	r0, r0
     6fe:	03 01       	movw	r0, r6
     700:	09 04       	cpc	r0, r9
     702:	00 01       	movw	r0, r0
     704:	03 01       	movw	r0, r6
     706:	09 02       	muls	r16, r25
     708:	00 01       	movw	r0, r0
     70a:	03 05       	cpc	r16, r3
     70c:	09 02       	muls	r16, r25
     70e:	00 01       	movw	r0, r0
     710:	03 01       	movw	r0, r6
     712:	09 02       	muls	r16, r25
     714:	00 01       	movw	r0, r0
     716:	03 01       	movw	r0, r6
     718:	09 04       	cpc	r0, r9
     71a:	00 01       	movw	r0, r0
     71c:	03 01       	movw	r0, r6
     71e:	09 02       	muls	r16, r25
     720:	00 01       	movw	r0, r0
     722:	03 01       	movw	r0, r6
     724:	09 02       	muls	r16, r25
     726:	00 01       	movw	r0, r0
     728:	03 01       	movw	r0, r6
     72a:	09 02       	muls	r16, r25
     72c:	00 01       	movw	r0, r0
     72e:	03 02       	muls	r16, r19
     730:	09 02       	muls	r16, r25
     732:	00 01       	movw	r0, r0
     734:	03 02       	muls	r16, r19
     736:	09 02       	muls	r16, r25
     738:	00 01       	movw	r0, r0
     73a:	03 01       	movw	r0, r6
     73c:	09 04       	cpc	r0, r9
     73e:	00 01       	movw	r0, r0
     740:	03 01       	movw	r0, r6
     742:	09 02       	muls	r16, r25
     744:	00 01       	movw	r0, r0
     746:	03 04       	cpc	r0, r3
     748:	09 02       	muls	r16, r25
     74a:	00 01       	movw	r0, r0
     74c:	03 01       	movw	r0, r6
     74e:	09 02       	muls	r16, r25
     750:	00 01       	movw	r0, r0
     752:	03 02       	muls	r16, r19
     754:	09 02       	muls	r16, r25
     756:	00 01       	movw	r0, r0
     758:	03 01       	movw	r0, r6
     75a:	09 02       	muls	r16, r25
     75c:	00 01       	movw	r0, r0
     75e:	03 01       	movw	r0, r6
     760:	09 02       	muls	r16, r25
     762:	00 01       	movw	r0, r0
     764:	03 01       	movw	r0, r6
     766:	09 02       	muls	r16, r25
     768:	00 01       	movw	r0, r0
     76a:	03 02       	muls	r16, r19
     76c:	09 02       	muls	r16, r25
     76e:	00 01       	movw	r0, r0
     770:	03 01       	movw	r0, r6
     772:	09 02       	muls	r16, r25
     774:	00 01       	movw	r0, r0
     776:	03 01       	movw	r0, r6
     778:	09 02       	muls	r16, r25
     77a:	00 01       	movw	r0, r0
     77c:	03 01       	movw	r0, r6
     77e:	09 02       	muls	r16, r25
     780:	00 01       	movw	r0, r0
     782:	03 02       	muls	r16, r19
     784:	09 02       	muls	r16, r25
     786:	00 01       	movw	r0, r0
     788:	03 02       	muls	r16, r19
     78a:	09 02       	muls	r16, r25
     78c:	00 01       	movw	r0, r0
     78e:	03 01       	movw	r0, r6
     790:	09 02       	muls	r16, r25
     792:	00 01       	movw	r0, r0
     794:	03 01       	movw	r0, r6
     796:	09 02       	muls	r16, r25
     798:	00 01       	movw	r0, r0
     79a:	03 01       	movw	r0, r6
     79c:	09 02       	muls	r16, r25
     79e:	00 01       	movw	r0, r0
     7a0:	03 01       	movw	r0, r6
     7a2:	09 02       	muls	r16, r25
     7a4:	00 01       	movw	r0, r0
     7a6:	03 01       	movw	r0, r6
     7a8:	09 02       	muls	r16, r25
     7aa:	00 01       	movw	r0, r0
     7ac:	03 01       	movw	r0, r6
     7ae:	09 02       	muls	r16, r25
     7b0:	00 01       	movw	r0, r0
     7b2:	03 01       	movw	r0, r6
     7b4:	09 02       	muls	r16, r25
     7b6:	00 01       	movw	r0, r0
     7b8:	03 01       	movw	r0, r6
     7ba:	09 02       	muls	r16, r25
     7bc:	00 01       	movw	r0, r0
     7be:	03 01       	movw	r0, r6
     7c0:	09 02       	muls	r16, r25
     7c2:	00 01       	movw	r0, r0
     7c4:	03 02       	muls	r16, r19
     7c6:	09 02       	muls	r16, r25
     7c8:	00 01       	movw	r0, r0
     7ca:	03 01       	movw	r0, r6
     7cc:	09 02       	muls	r16, r25
     7ce:	00 01       	movw	r0, r0
     7d0:	03 02       	muls	r16, r19
     7d2:	09 02       	muls	r16, r25
     7d4:	00 01       	movw	r0, r0
     7d6:	03 01       	movw	r0, r6
     7d8:	09 02       	muls	r16, r25
     7da:	00 01       	movw	r0, r0
     7dc:	03 01       	movw	r0, r6
     7de:	09 02       	muls	r16, r25
     7e0:	00 01       	movw	r0, r0
     7e2:	03 01       	movw	r0, r6
     7e4:	09 02       	muls	r16, r25
     7e6:	00 01       	movw	r0, r0
     7e8:	03 01       	movw	r0, r6
     7ea:	09 02       	muls	r16, r25
     7ec:	00 01       	movw	r0, r0
     7ee:	03 01       	movw	r0, r6
     7f0:	09 02       	muls	r16, r25
     7f2:	00 01       	movw	r0, r0
     7f4:	03 01       	movw	r0, r6
     7f6:	09 02       	muls	r16, r25
     7f8:	00 01       	movw	r0, r0
     7fa:	03 04       	cpc	r0, r3
     7fc:	09 02       	muls	r16, r25
     7fe:	00 01       	movw	r0, r0
     800:	03 01       	movw	r0, r6
     802:	09 02       	muls	r16, r25
     804:	00 01       	movw	r0, r0
     806:	03 02       	muls	r16, r19
     808:	09 02       	muls	r16, r25
     80a:	00 01       	movw	r0, r0
     80c:	03 01       	movw	r0, r6
     80e:	09 02       	muls	r16, r25
     810:	00 01       	movw	r0, r0
     812:	03 02       	muls	r16, r19
     814:	09 02       	muls	r16, r25
     816:	00 01       	movw	r0, r0
     818:	03 01       	movw	r0, r6
     81a:	09 02       	muls	r16, r25
     81c:	00 01       	movw	r0, r0
     81e:	03 02       	muls	r16, r19
     820:	09 02       	muls	r16, r25
     822:	00 01       	movw	r0, r0
     824:	03 02       	muls	r16, r19
     826:	09 02       	muls	r16, r25
     828:	00 01       	movw	r0, r0
     82a:	03 01       	movw	r0, r6
     82c:	09 02       	muls	r16, r25
     82e:	00 01       	movw	r0, r0
     830:	03 01       	movw	r0, r6
     832:	09 02       	muls	r16, r25
     834:	00 01       	movw	r0, r0
     836:	03 01       	movw	r0, r6
     838:	09 02       	muls	r16, r25
     83a:	00 01       	movw	r0, r0
     83c:	03 01       	movw	r0, r6
     83e:	09 02       	muls	r16, r25
     840:	00 01       	movw	r0, r0
     842:	03 01       	movw	r0, r6
     844:	09 02       	muls	r16, r25
     846:	00 01       	movw	r0, r0
     848:	03 01       	movw	r0, r6
     84a:	09 02       	muls	r16, r25
     84c:	00 01       	movw	r0, r0
     84e:	03 01       	movw	r0, r6
     850:	09 02       	muls	r16, r25
     852:	00 01       	movw	r0, r0
     854:	03 01       	movw	r0, r6
     856:	09 02       	muls	r16, r25
     858:	00 01       	movw	r0, r0
     85a:	03 01       	movw	r0, r6
     85c:	09 02       	muls	r16, r25
     85e:	00 01       	movw	r0, r0
     860:	03 02       	muls	r16, r19
     862:	09 02       	muls	r16, r25
     864:	00 01       	movw	r0, r0
     866:	03 01       	movw	r0, r6
     868:	09 02       	muls	r16, r25
     86a:	00 01       	movw	r0, r0
     86c:	03 02       	muls	r16, r19
     86e:	09 02       	muls	r16, r25
     870:	00 01       	movw	r0, r0
     872:	03 01       	movw	r0, r6
     874:	09 02       	muls	r16, r25
     876:	00 01       	movw	r0, r0
     878:	03 01       	movw	r0, r6
     87a:	09 02       	muls	r16, r25
     87c:	00 01       	movw	r0, r0
     87e:	03 01       	movw	r0, r6
     880:	09 02       	muls	r16, r25
     882:	00 01       	movw	r0, r0
     884:	03 01       	movw	r0, r6
     886:	09 02       	muls	r16, r25
     888:	00 01       	movw	r0, r0
     88a:	03 05       	cpc	r16, r3
     88c:	09 02       	muls	r16, r25
     88e:	00 01       	movw	r0, r0
     890:	03 01       	movw	r0, r6
     892:	09 02       	muls	r16, r25
     894:	00 01       	movw	r0, r0
     896:	03 01       	movw	r0, r6
     898:	09 04       	cpc	r0, r9
     89a:	00 01       	movw	r0, r0
     89c:	03 01       	movw	r0, r6
     89e:	09 02       	muls	r16, r25
     8a0:	00 01       	movw	r0, r0
     8a2:	03 01       	movw	r0, r6
     8a4:	09 02       	muls	r16, r25
     8a6:	00 01       	movw	r0, r0
     8a8:	03 01       	movw	r0, r6
     8aa:	09 02       	muls	r16, r25
     8ac:	00 01       	movw	r0, r0
     8ae:	03 03       	mulsu	r16, r19
     8b0:	09 02       	muls	r16, r25
     8b2:	00 01       	movw	r0, r0
     8b4:	03 01       	movw	r0, r6
     8b6:	09 02       	muls	r16, r25
     8b8:	00 01       	movw	r0, r0
     8ba:	03 02       	muls	r16, r19
     8bc:	09 02       	muls	r16, r25
     8be:	00 01       	movw	r0, r0
     8c0:	03 01       	movw	r0, r6
     8c2:	09 02       	muls	r16, r25
     8c4:	00 01       	movw	r0, r0
     8c6:	03 01       	movw	r0, r6
     8c8:	09 02       	muls	r16, r25
     8ca:	00 01       	movw	r0, r0
     8cc:	03 01       	movw	r0, r6
     8ce:	09 02       	muls	r16, r25
     8d0:	00 01       	movw	r0, r0
     8d2:	04 07       	cpc	r16, r20
     8d4:	03 97       	sbiw	r24, 0x03	; 3
     8d6:	7e 09       	sbc	r23, r14
     8d8:	02 00       	.word	0x0002	; ????
     8da:	01 03       	mulsu	r16, r17
     8dc:	01 09       	sbc	r16, r1
     8de:	02 00       	.word	0x0002	; ????
     8e0:	01 03       	mulsu	r16, r17
     8e2:	01 09       	sbc	r16, r1
     8e4:	02 00       	.word	0x0002	; ????
     8e6:	01 03       	mulsu	r16, r17
     8e8:	01 09       	sbc	r16, r1
     8ea:	02 00       	.word	0x0002	; ????
     8ec:	01 03       	mulsu	r16, r17
     8ee:	01 09       	sbc	r16, r1
     8f0:	02 00       	.word	0x0002	; ????
     8f2:	01 03       	mulsu	r16, r17
     8f4:	01 09       	sbc	r16, r1
     8f6:	02 00       	.word	0x0002	; ????
     8f8:	01 03       	mulsu	r16, r17
     8fa:	01 09       	sbc	r16, r1
     8fc:	02 00       	.word	0x0002	; ????
     8fe:	01 03       	mulsu	r16, r17
     900:	01 09       	sbc	r16, r1
     902:	02 00       	.word	0x0002	; ????
     904:	01 03       	mulsu	r16, r17
     906:	01 09       	sbc	r16, r1
     908:	02 00       	.word	0x0002	; ????
     90a:	01 03       	mulsu	r16, r17
     90c:	05 09       	sbc	r16, r5
     90e:	02 00       	.word	0x0002	; ????
     910:	01 03       	mulsu	r16, r17
     912:	01 09       	sbc	r16, r1
     914:	02 00       	.word	0x0002	; ????
     916:	01 03       	mulsu	r16, r17
     918:	01 09       	sbc	r16, r1
     91a:	02 00       	.word	0x0002	; ????
     91c:	01 03       	mulsu	r16, r17
     91e:	01 09       	sbc	r16, r1
     920:	02 00       	.word	0x0002	; ????
     922:	01 03       	mulsu	r16, r17
     924:	01 09       	sbc	r16, r1
     926:	02 00       	.word	0x0002	; ????
     928:	01 03       	mulsu	r16, r17
     92a:	01 09       	sbc	r16, r1
     92c:	02 00       	.word	0x0002	; ????
     92e:	01 03       	mulsu	r16, r17
     930:	04 09       	sbc	r16, r4
     932:	02 00       	.word	0x0002	; ????
     934:	01 03       	mulsu	r16, r17
     936:	01 09       	sbc	r16, r1
     938:	02 00       	.word	0x0002	; ????
     93a:	01 03       	mulsu	r16, r17
     93c:	01 09       	sbc	r16, r1
     93e:	02 00       	.word	0x0002	; ????
     940:	01 03       	mulsu	r16, r17
     942:	01 09       	sbc	r16, r1
     944:	02 00       	.word	0x0002	; ????
     946:	01 03       	mulsu	r16, r17
     948:	01 09       	sbc	r16, r1
     94a:	02 00       	.word	0x0002	; ????
     94c:	01 03       	mulsu	r16, r17
     94e:	01 09       	sbc	r16, r1
     950:	02 00       	.word	0x0002	; ????
     952:	01 03       	mulsu	r16, r17
     954:	03 09       	sbc	r16, r3
     956:	02 00       	.word	0x0002	; ????
     958:	01 03       	mulsu	r16, r17
     95a:	03 09       	sbc	r16, r3
     95c:	02 00       	.word	0x0002	; ????
     95e:	01 03       	mulsu	r16, r17
     960:	01 09       	sbc	r16, r1
     962:	02 00       	.word	0x0002	; ????
     964:	01 03       	mulsu	r16, r17
     966:	01 09       	sbc	r16, r1
     968:	02 00       	.word	0x0002	; ????
     96a:	01 03       	mulsu	r16, r17
     96c:	01 09       	sbc	r16, r1
     96e:	02 00       	.word	0x0002	; ????
     970:	01 04       	cpc	r0, r1
     972:	08 03       	fmul	r16, r16
     974:	5e 09       	sbc	r21, r14
     976:	02 00       	.word	0x0002	; ????
     978:	01 03       	mulsu	r16, r17
     97a:	01 09       	sbc	r16, r1
     97c:	02 00       	.word	0x0002	; ????
     97e:	01 03       	mulsu	r16, r17
     980:	02 09       	sbc	r16, r2
     982:	02 00       	.word	0x0002	; ????
     984:	01 03       	mulsu	r16, r17
     986:	04 09       	sbc	r16, r4
     988:	02 00       	.word	0x0002	; ????
     98a:	01 03       	mulsu	r16, r17
     98c:	01 09       	sbc	r16, r1
     98e:	02 00       	.word	0x0002	; ????
     990:	01 03       	mulsu	r16, r17
     992:	01 09       	sbc	r16, r1
     994:	02 00       	.word	0x0002	; ????
     996:	01 03       	mulsu	r16, r17
     998:	08 09       	sbc	r16, r8
     99a:	02 00       	.word	0x0002	; ????
     99c:	01 03       	mulsu	r16, r17
     99e:	01 09       	sbc	r16, r1
     9a0:	02 00       	.word	0x0002	; ????
     9a2:	01 03       	mulsu	r16, r17
     9a4:	03 09       	sbc	r16, r3
     9a6:	02 00       	.word	0x0002	; ????
     9a8:	01 03       	mulsu	r16, r17
     9aa:	01 09       	sbc	r16, r1
     9ac:	02 00       	.word	0x0002	; ????
     9ae:	01 03       	mulsu	r16, r17
     9b0:	02 09       	sbc	r16, r2
     9b2:	02 00       	.word	0x0002	; ????
     9b4:	01 03       	mulsu	r16, r17
     9b6:	01 09       	sbc	r16, r1
     9b8:	02 00       	.word	0x0002	; ????
     9ba:	01 03       	mulsu	r16, r17
     9bc:	01 09       	sbc	r16, r1
     9be:	02 00       	.word	0x0002	; ????
     9c0:	01 03       	mulsu	r16, r17
     9c2:	02 09       	sbc	r16, r2
     9c4:	02 00       	.word	0x0002	; ????
     9c6:	01 03       	mulsu	r16, r17
     9c8:	01 09       	sbc	r16, r1
     9ca:	02 00       	.word	0x0002	; ????
     9cc:	01 03       	mulsu	r16, r17
     9ce:	08 09       	sbc	r16, r8
     9d0:	02 00       	.word	0x0002	; ????
     9d2:	01 03       	mulsu	r16, r17
     9d4:	01 09       	sbc	r16, r1
     9d6:	02 00       	.word	0x0002	; ????
     9d8:	01 03       	mulsu	r16, r17
     9da:	03 09       	sbc	r16, r3
     9dc:	02 00       	.word	0x0002	; ????
     9de:	01 03       	mulsu	r16, r17
     9e0:	01 09       	sbc	r16, r1
     9e2:	02 00       	.word	0x0002	; ????
     9e4:	01 03       	mulsu	r16, r17
     9e6:	03 09       	sbc	r16, r3
     9e8:	02 00       	.word	0x0002	; ????
     9ea:	01 03       	mulsu	r16, r17
     9ec:	01 09       	sbc	r16, r1
     9ee:	02 00       	.word	0x0002	; ????
     9f0:	01 03       	mulsu	r16, r17
     9f2:	02 09       	sbc	r16, r2
     9f4:	02 00       	.word	0x0002	; ????
     9f6:	01 03       	mulsu	r16, r17
     9f8:	01 09       	sbc	r16, r1
     9fa:	02 00       	.word	0x0002	; ????
     9fc:	01 03       	mulsu	r16, r17
     9fe:	01 09       	sbc	r16, r1
     a00:	02 00       	.word	0x0002	; ????
     a02:	01 03       	mulsu	r16, r17
     a04:	02 09       	sbc	r16, r2
     a06:	02 00       	.word	0x0002	; ????
     a08:	01 03       	mulsu	r16, r17
     a0a:	01 09       	sbc	r16, r1
     a0c:	02 00       	.word	0x0002	; ????
     a0e:	01 03       	mulsu	r16, r17
     a10:	07 09       	sbc	r16, r7
     a12:	02 00       	.word	0x0002	; ????
     a14:	01 03       	mulsu	r16, r17
     a16:	03 09       	sbc	r16, r3
     a18:	02 00       	.word	0x0002	; ????
     a1a:	01 03       	mulsu	r16, r17
     a1c:	03 09       	sbc	r16, r3
     a1e:	02 00       	.word	0x0002	; ????
     a20:	01 03       	mulsu	r16, r17
     a22:	01 09       	sbc	r16, r1
     a24:	02 00       	.word	0x0002	; ????
     a26:	01 03       	mulsu	r16, r17
     a28:	02 09       	sbc	r16, r2
     a2a:	02 00       	.word	0x0002	; ????
     a2c:	01 03       	mulsu	r16, r17
     a2e:	01 09       	sbc	r16, r1
     a30:	02 00       	.word	0x0002	; ????
     a32:	01 03       	mulsu	r16, r17
     a34:	02 09       	sbc	r16, r2
     a36:	02 00       	.word	0x0002	; ????
     a38:	01 03       	mulsu	r16, r17
     a3a:	01 09       	sbc	r16, r1
     a3c:	02 00       	.word	0x0002	; ????
     a3e:	01 03       	mulsu	r16, r17
     a40:	01 09       	sbc	r16, r1
     a42:	02 00       	.word	0x0002	; ????
     a44:	01 03       	mulsu	r16, r17
     a46:	01 09       	sbc	r16, r1
     a48:	02 00       	.word	0x0002	; ????
     a4a:	01 03       	mulsu	r16, r17
     a4c:	02 09       	sbc	r16, r2
     a4e:	02 00       	.word	0x0002	; ????
     a50:	01 03       	mulsu	r16, r17
     a52:	01 09       	sbc	r16, r1
     a54:	02 00       	.word	0x0002	; ????
     a56:	01 03       	mulsu	r16, r17
     a58:	01 09       	sbc	r16, r1
     a5a:	02 00       	.word	0x0002	; ????
     a5c:	01 03       	mulsu	r16, r17
     a5e:	01 09       	sbc	r16, r1
     a60:	02 00       	.word	0x0002	; ????
     a62:	01 03       	mulsu	r16, r17
     a64:	02 09       	sbc	r16, r2
     a66:	02 00       	.word	0x0002	; ????
     a68:	01 03       	mulsu	r16, r17
     a6a:	01 09       	sbc	r16, r1
     a6c:	02 00       	.word	0x0002	; ????
     a6e:	01 03       	mulsu	r16, r17
     a70:	08 09       	sbc	r16, r8
     a72:	02 00       	.word	0x0002	; ????
     a74:	01 03       	mulsu	r16, r17
     a76:	01 09       	sbc	r16, r1
     a78:	02 00       	.word	0x0002	; ????
     a7a:	01 03       	mulsu	r16, r17
     a7c:	02 09       	sbc	r16, r2
     a7e:	02 00       	.word	0x0002	; ????
     a80:	01 03       	mulsu	r16, r17
     a82:	03 09       	sbc	r16, r3
     a84:	02 00       	.word	0x0002	; ????
     a86:	01 03       	mulsu	r16, r17
     a88:	03 09       	sbc	r16, r3
     a8a:	02 00       	.word	0x0002	; ????
     a8c:	01 03       	mulsu	r16, r17
     a8e:	08 09       	sbc	r16, r8
     a90:	02 00       	.word	0x0002	; ????
     a92:	01 03       	mulsu	r16, r17
     a94:	01 09       	sbc	r16, r1
     a96:	02 00       	.word	0x0002	; ????
     a98:	01 03       	mulsu	r16, r17
     a9a:	02 09       	sbc	r16, r2
     a9c:	02 00       	.word	0x0002	; ????
     a9e:	01 03       	mulsu	r16, r17
     aa0:	03 09       	sbc	r16, r3
     aa2:	02 00       	.word	0x0002	; ????
     aa4:	01 03       	mulsu	r16, r17
     aa6:	03 09       	sbc	r16, r3
     aa8:	02 00       	.word	0x0002	; ????
     aaa:	01 04       	cpc	r0, r1
     aac:	09 03       	fmul	r16, r17
     aae:	bd 7f       	andi	r27, 0xFD	; 253
     ab0:	09 02       	muls	r16, r25
     ab2:	00 01       	movw	r0, r0
     ab4:	03 03       	mulsu	r16, r19
     ab6:	09 02       	muls	r16, r25
     ab8:	00 01       	movw	r0, r0
     aba:	03 01       	movw	r0, r6
     abc:	09 02       	muls	r16, r25
     abe:	00 01       	movw	r0, r0
     ac0:	03 03       	mulsu	r16, r19
     ac2:	09 02       	muls	r16, r25
     ac4:	00 01       	movw	r0, r0
     ac6:	03 01       	movw	r0, r6
     ac8:	09 02       	muls	r16, r25
     aca:	00 01       	movw	r0, r0
     acc:	03 02       	muls	r16, r19
     ace:	09 02       	muls	r16, r25
     ad0:	00 01       	movw	r0, r0
     ad2:	03 02       	muls	r16, r19
     ad4:	09 02       	muls	r16, r25
     ad6:	00 01       	movw	r0, r0
     ad8:	03 01       	movw	r0, r6
     ada:	09 02       	muls	r16, r25
     adc:	00 01       	movw	r0, r0
     ade:	03 08       	sbc	r0, r3
     ae0:	09 02       	muls	r16, r25
     ae2:	00 01       	movw	r0, r0
     ae4:	03 01       	movw	r0, r6
     ae6:	09 02       	muls	r16, r25
     ae8:	00 01       	movw	r0, r0
     aea:	03 03       	mulsu	r16, r19
     aec:	09 02       	muls	r16, r25
     aee:	00 01       	movw	r0, r0
     af0:	03 01       	movw	r0, r6
     af2:	09 02       	muls	r16, r25
     af4:	00 01       	movw	r0, r0
     af6:	03 02       	muls	r16, r19
     af8:	09 02       	muls	r16, r25
     afa:	00 01       	movw	r0, r0
     afc:	03 02       	muls	r16, r19
     afe:	09 02       	muls	r16, r25
     b00:	00 01       	movw	r0, r0
     b02:	03 02       	muls	r16, r19
     b04:	09 02       	muls	r16, r25
     b06:	00 01       	movw	r0, r0
     b08:	03 03       	mulsu	r16, r19
     b0a:	09 02       	muls	r16, r25
     b0c:	00 01       	movw	r0, r0
     b0e:	03 01       	movw	r0, r6
     b10:	09 02       	muls	r16, r25
     b12:	00 01       	movw	r0, r0
     b14:	03 02       	muls	r16, r19
     b16:	09 02       	muls	r16, r25
     b18:	00 01       	movw	r0, r0
     b1a:	03 01       	movw	r0, r6
     b1c:	09 02       	muls	r16, r25
     b1e:	00 01       	movw	r0, r0
     b20:	03 02       	muls	r16, r19
     b22:	09 02       	muls	r16, r25
     b24:	00 01       	movw	r0, r0
     b26:	03 01       	movw	r0, r6
     b28:	09 02       	muls	r16, r25
     b2a:	00 01       	movw	r0, r0
     b2c:	03 04       	cpc	r0, r3
     b2e:	09 02       	muls	r16, r25
     b30:	00 01       	movw	r0, r0
     b32:	03 01       	movw	r0, r6
     b34:	09 02       	muls	r16, r25
     b36:	00 01       	movw	r0, r0
     b38:	03 02       	muls	r16, r19
     b3a:	09 02       	muls	r16, r25
     b3c:	00 01       	movw	r0, r0
     b3e:	03 02       	muls	r16, r19
     b40:	09 02       	muls	r16, r25
     b42:	00 01       	movw	r0, r0
     b44:	03 01       	movw	r0, r6
     b46:	09 02       	muls	r16, r25
     b48:	00 01       	movw	r0, r0
     b4a:	03 02       	muls	r16, r19
     b4c:	09 02       	muls	r16, r25
     b4e:	00 01       	movw	r0, r0
     b50:	03 01       	movw	r0, r6
     b52:	09 02       	muls	r16, r25
     b54:	00 01       	movw	r0, r0
     b56:	03 04       	cpc	r0, r3
     b58:	09 02       	muls	r16, r25
     b5a:	00 01       	movw	r0, r0
     b5c:	03 01       	movw	r0, r6
     b5e:	09 02       	muls	r16, r25
     b60:	00 01       	movw	r0, r0
     b62:	03 02       	muls	r16, r19
     b64:	09 02       	muls	r16, r25
     b66:	00 01       	movw	r0, r0
     b68:	03 02       	muls	r16, r19
     b6a:	09 02       	muls	r16, r25
     b6c:	00 01       	movw	r0, r0
     b6e:	03 01       	movw	r0, r6
     b70:	09 02       	muls	r16, r25
     b72:	00 01       	movw	r0, r0
     b74:	03 01       	movw	r0, r6
     b76:	09 02       	muls	r16, r25
     b78:	00 01       	movw	r0, r0
     b7a:	03 01       	movw	r0, r6
     b7c:	09 02       	muls	r16, r25
     b7e:	00 01       	movw	r0, r0
     b80:	03 04       	cpc	r0, r3
     b82:	09 02       	muls	r16, r25
     b84:	00 01       	movw	r0, r0
     b86:	03 02       	muls	r16, r19
     b88:	09 02       	muls	r16, r25
     b8a:	00 01       	movw	r0, r0
     b8c:	03 02       	muls	r16, r19
     b8e:	09 02       	muls	r16, r25
     b90:	00 01       	movw	r0, r0
     b92:	03 02       	muls	r16, r19
     b94:	09 02       	muls	r16, r25
     b96:	00 01       	movw	r0, r0
     b98:	03 01       	movw	r0, r6
     b9a:	09 02       	muls	r16, r25
     b9c:	00 01       	movw	r0, r0
     b9e:	03 01       	movw	r0, r6
     ba0:	09 02       	muls	r16, r25
     ba2:	00 01       	movw	r0, r0
     ba4:	03 01       	movw	r0, r6
     ba6:	09 02       	muls	r16, r25
     ba8:	00 01       	movw	r0, r0
     baa:	03 03       	mulsu	r16, r19
     bac:	09 02       	muls	r16, r25
     bae:	00 01       	movw	r0, r0
     bb0:	03 03       	mulsu	r16, r19
     bb2:	09 02       	muls	r16, r25
     bb4:	00 01       	movw	r0, r0
     bb6:	03 01       	movw	r0, r6
     bb8:	09 02       	muls	r16, r25
     bba:	00 01       	movw	r0, r0
     bbc:	03 02       	muls	r16, r19
     bbe:	09 02       	muls	r16, r25
     bc0:	00 01       	movw	r0, r0
     bc2:	03 01       	movw	r0, r6
     bc4:	09 02       	muls	r16, r25
     bc6:	00 01       	movw	r0, r0
     bc8:	03 02       	muls	r16, r19
     bca:	09 02       	muls	r16, r25
     bcc:	00 01       	movw	r0, r0
     bce:	03 0e       	add	r0, r19
     bd0:	09 02       	muls	r16, r25
     bd2:	00 01       	movw	r0, r0
     bd4:	03 01       	movw	r0, r6
     bd6:	09 02       	muls	r16, r25
     bd8:	00 01       	movw	r0, r0
     bda:	03 02       	muls	r16, r19
     bdc:	09 02       	muls	r16, r25
     bde:	00 01       	movw	r0, r0
     be0:	03 01       	movw	r0, r6
     be2:	09 02       	muls	r16, r25
     be4:	00 01       	movw	r0, r0
     be6:	03 02       	muls	r16, r19
     be8:	09 02       	muls	r16, r25
     bea:	00 01       	movw	r0, r0
     bec:	03 01       	movw	r0, r6
     bee:	09 02       	muls	r16, r25
     bf0:	00 01       	movw	r0, r0
     bf2:	03 01       	movw	r0, r6
     bf4:	09 02       	muls	r16, r25
     bf6:	00 01       	movw	r0, r0
     bf8:	03 05       	cpc	r16, r3
     bfa:	09 02       	muls	r16, r25
     bfc:	00 01       	movw	r0, r0
     bfe:	03 01       	movw	r0, r6
     c00:	09 02       	muls	r16, r25
     c02:	00 01       	movw	r0, r0
     c04:	03 01       	movw	r0, r6
     c06:	09 02       	muls	r16, r25
     c08:	00 01       	movw	r0, r0
     c0a:	03 01       	movw	r0, r6
     c0c:	09 02       	muls	r16, r25
     c0e:	00 01       	movw	r0, r0
     c10:	03 02       	muls	r16, r19
     c12:	09 02       	muls	r16, r25
     c14:	00 01       	movw	r0, r0
     c16:	03 02       	muls	r16, r19
     c18:	09 02       	muls	r16, r25
     c1a:	00 01       	movw	r0, r0
     c1c:	03 03       	mulsu	r16, r19
     c1e:	09 02       	muls	r16, r25
     c20:	00 01       	movw	r0, r0
     c22:	03 01       	movw	r0, r6
     c24:	09 02       	muls	r16, r25
     c26:	00 01       	movw	r0, r0
     c28:	03 02       	muls	r16, r19
     c2a:	09 02       	muls	r16, r25
     c2c:	00 01       	movw	r0, r0
     c2e:	03 01       	movw	r0, r6
     c30:	09 02       	muls	r16, r25
     c32:	00 01       	movw	r0, r0
     c34:	03 04       	cpc	r0, r3
     c36:	09 02       	muls	r16, r25
     c38:	00 01       	movw	r0, r0
     c3a:	03 01       	movw	r0, r6
     c3c:	09 02       	muls	r16, r25
     c3e:	00 01       	movw	r0, r0
     c40:	03 02       	muls	r16, r19
     c42:	09 02       	muls	r16, r25
     c44:	00 01       	movw	r0, r0
     c46:	03 02       	muls	r16, r19
     c48:	09 02       	muls	r16, r25
     c4a:	00 01       	movw	r0, r0
     c4c:	03 01       	movw	r0, r6
     c4e:	09 02       	muls	r16, r25
     c50:	00 01       	movw	r0, r0
     c52:	03 02       	muls	r16, r19
     c54:	09 02       	muls	r16, r25
     c56:	00 01       	movw	r0, r0
     c58:	03 01       	movw	r0, r6
     c5a:	09 02       	muls	r16, r25
     c5c:	00 01       	movw	r0, r0
     c5e:	03 04       	cpc	r0, r3
     c60:	09 02       	muls	r16, r25
     c62:	00 01       	movw	r0, r0
     c64:	03 01       	movw	r0, r6
     c66:	09 02       	muls	r16, r25
     c68:	00 01       	movw	r0, r0
     c6a:	03 02       	muls	r16, r19
     c6c:	09 02       	muls	r16, r25
     c6e:	00 01       	movw	r0, r0
     c70:	03 02       	muls	r16, r19
     c72:	09 02       	muls	r16, r25
     c74:	00 01       	movw	r0, r0
     c76:	03 01       	movw	r0, r6
     c78:	09 02       	muls	r16, r25
     c7a:	00 01       	movw	r0, r0
     c7c:	03 01       	movw	r0, r6
     c7e:	09 02       	muls	r16, r25
     c80:	00 01       	movw	r0, r0
     c82:	03 01       	movw	r0, r6
     c84:	09 02       	muls	r16, r25
     c86:	00 01       	movw	r0, r0
     c88:	03 04       	cpc	r0, r3
     c8a:	09 02       	muls	r16, r25
     c8c:	00 01       	movw	r0, r0
     c8e:	03 02       	muls	r16, r19
     c90:	09 02       	muls	r16, r25
     c92:	00 01       	movw	r0, r0
     c94:	03 04       	cpc	r0, r3
     c96:	09 02       	muls	r16, r25
     c98:	00 01       	movw	r0, r0
     c9a:	03 01       	movw	r0, r6
     c9c:	09 02       	muls	r16, r25
     c9e:	00 01       	movw	r0, r0
     ca0:	03 02       	muls	r16, r19
     ca2:	09 02       	muls	r16, r25
     ca4:	00 01       	movw	r0, r0
     ca6:	03 01       	movw	r0, r6
     ca8:	09 02       	muls	r16, r25
     caa:	00 01       	movw	r0, r0
     cac:	03 03       	mulsu	r16, r19
     cae:	09 02       	muls	r16, r25
     cb0:	00 01       	movw	r0, r0
     cb2:	03 01       	movw	r0, r6
     cb4:	09 02       	muls	r16, r25
     cb6:	00 01       	movw	r0, r0
     cb8:	03 02       	muls	r16, r19
     cba:	09 02       	muls	r16, r25
     cbc:	00 01       	movw	r0, r0
     cbe:	03 02       	muls	r16, r19
     cc0:	09 02       	muls	r16, r25
     cc2:	00 01       	movw	r0, r0
     cc4:	03 01       	movw	r0, r6
     cc6:	09 02       	muls	r16, r25
     cc8:	00 01       	movw	r0, r0
     cca:	03 02       	muls	r16, r19
     ccc:	09 02       	muls	r16, r25
     cce:	00 01       	movw	r0, r0
     cd0:	03 01       	movw	r0, r6
     cd2:	09 02       	muls	r16, r25
     cd4:	00 01       	movw	r0, r0
     cd6:	03 04       	cpc	r0, r3
     cd8:	09 02       	muls	r16, r25
     cda:	00 01       	movw	r0, r0
     cdc:	03 01       	movw	r0, r6
     cde:	09 02       	muls	r16, r25
     ce0:	00 01       	movw	r0, r0
     ce2:	03 01       	movw	r0, r6
     ce4:	09 02       	muls	r16, r25
     ce6:	00 01       	movw	r0, r0
     ce8:	03 01       	movw	r0, r6
     cea:	09 02       	muls	r16, r25
     cec:	00 01       	movw	r0, r0
     cee:	03 03       	mulsu	r16, r19
     cf0:	09 02       	muls	r16, r25
     cf2:	00 01       	movw	r0, r0
     cf4:	03 03       	mulsu	r16, r19
     cf6:	09 02       	muls	r16, r25
     cf8:	00 01       	movw	r0, r0
     cfa:	03 01       	movw	r0, r6
     cfc:	09 02       	muls	r16, r25
     cfe:	00 01       	movw	r0, r0
     d00:	03 01       	movw	r0, r6
     d02:	09 02       	muls	r16, r25
     d04:	00 01       	movw	r0, r0
     d06:	03 02       	muls	r16, r19
     d08:	09 02       	muls	r16, r25
     d0a:	00 01       	movw	r0, r0
     d0c:	03 02       	muls	r16, r19
     d0e:	09 02       	muls	r16, r25
     d10:	00 01       	movw	r0, r0
     d12:	03 01       	movw	r0, r6
     d14:	09 02       	muls	r16, r25
     d16:	00 01       	movw	r0, r0
     d18:	03 01       	movw	r0, r6
     d1a:	09 02       	muls	r16, r25
     d1c:	00 01       	movw	r0, r0
     d1e:	03 03       	mulsu	r16, r19
     d20:	09 02       	muls	r16, r25
     d22:	00 01       	movw	r0, r0
     d24:	03 03       	mulsu	r16, r19
     d26:	09 02       	muls	r16, r25
     d28:	00 01       	movw	r0, r0
     d2a:	03 01       	movw	r0, r6
     d2c:	09 02       	muls	r16, r25
     d2e:	00 01       	movw	r0, r0
     d30:	03 01       	movw	r0, r6
     d32:	09 02       	muls	r16, r25
     d34:	00 01       	movw	r0, r0
     d36:	03 01       	movw	r0, r6
     d38:	09 02       	muls	r16, r25
     d3a:	00 01       	movw	r0, r0
     d3c:	03 03       	mulsu	r16, r19
     d3e:	09 02       	muls	r16, r25
     d40:	00 01       	movw	r0, r0
     d42:	03 03       	mulsu	r16, r19
     d44:	09 02       	muls	r16, r25
     d46:	00 01       	movw	r0, r0
     d48:	03 01       	movw	r0, r6
     d4a:	09 02       	muls	r16, r25
     d4c:	00 01       	movw	r0, r0
     d4e:	03 01       	movw	r0, r6
     d50:	09 02       	muls	r16, r25
     d52:	00 01       	movw	r0, r0
     d54:	03 02       	muls	r16, r19
     d56:	09 02       	muls	r16, r25
     d58:	00 01       	movw	r0, r0
     d5a:	03 02       	muls	r16, r19
     d5c:	09 02       	muls	r16, r25
     d5e:	00 01       	movw	r0, r0
     d60:	03 01       	movw	r0, r6
     d62:	09 02       	muls	r16, r25
     d64:	00 01       	movw	r0, r0
     d66:	03 01       	movw	r0, r6
     d68:	09 02       	muls	r16, r25
     d6a:	00 01       	movw	r0, r0
     d6c:	03 04       	cpc	r0, r3
     d6e:	09 02       	muls	r16, r25
     d70:	00 01       	movw	r0, r0
     d72:	03 03       	mulsu	r16, r19
     d74:	09 02       	muls	r16, r25
     d76:	00 01       	movw	r0, r0
     d78:	03 03       	mulsu	r16, r19
     d7a:	09 02       	muls	r16, r25
     d7c:	00 01       	movw	r0, r0
     d7e:	03 01       	movw	r0, r6
     d80:	09 02       	muls	r16, r25
     d82:	00 01       	movw	r0, r0
     d84:	03 01       	movw	r0, r6
     d86:	09 02       	muls	r16, r25
     d88:	00 01       	movw	r0, r0
     d8a:	03 01       	movw	r0, r6
     d8c:	09 02       	muls	r16, r25
     d8e:	00 01       	movw	r0, r0
     d90:	03 01       	movw	r0, r6
     d92:	09 02       	muls	r16, r25
     d94:	00 01       	movw	r0, r0
     d96:	03 03       	mulsu	r16, r19
     d98:	09 02       	muls	r16, r25
     d9a:	00 01       	movw	r0, r0
     d9c:	03 01       	movw	r0, r6
     d9e:	09 02       	muls	r16, r25
     da0:	00 01       	movw	r0, r0
     da2:	03 01       	movw	r0, r6
     da4:	09 02       	muls	r16, r25
     da6:	00 01       	movw	r0, r0
     da8:	03 01       	movw	r0, r6
     daa:	09 02       	muls	r16, r25
     dac:	00 01       	movw	r0, r0
     dae:	03 01       	movw	r0, r6
     db0:	09 02       	muls	r16, r25
     db2:	00 01       	movw	r0, r0
     db4:	03 04       	cpc	r0, r3
     db6:	09 02       	muls	r16, r25
     db8:	00 01       	movw	r0, r0
     dba:	03 01       	movw	r0, r6
     dbc:	09 02       	muls	r16, r25
     dbe:	00 01       	movw	r0, r0
     dc0:	03 01       	movw	r0, r6
     dc2:	09 02       	muls	r16, r25
     dc4:	00 01       	movw	r0, r0
     dc6:	03 01       	movw	r0, r6
     dc8:	09 02       	muls	r16, r25
     dca:	00 01       	movw	r0, r0
     dcc:	03 03       	mulsu	r16, r19
     dce:	09 02       	muls	r16, r25
     dd0:	00 01       	movw	r0, r0
     dd2:	03 01       	movw	r0, r6
     dd4:	09 02       	muls	r16, r25
     dd6:	00 01       	movw	r0, r0
     dd8:	03 03       	mulsu	r16, r19
     dda:	09 04       	cpc	r0, r9
     ddc:	00 01       	movw	r0, r0
     dde:	03 01       	movw	r0, r6
     de0:	09 02       	muls	r16, r25
     de2:	00 01       	movw	r0, r0
     de4:	03 02       	muls	r16, r19
     de6:	09 04       	cpc	r0, r9
     de8:	00 01       	movw	r0, r0
     dea:	03 01       	movw	r0, r6
     dec:	09 02       	muls	r16, r25
     dee:	00 01       	movw	r0, r0
     df0:	03 01       	movw	r0, r6
     df2:	09 02       	muls	r16, r25
     df4:	00 01       	movw	r0, r0
     df6:	03 01       	movw	r0, r6
     df8:	09 02       	muls	r16, r25
     dfa:	00 01       	movw	r0, r0
     dfc:	03 01       	movw	r0, r6
     dfe:	09 02       	muls	r16, r25
     e00:	00 01       	movw	r0, r0
     e02:	03 05       	cpc	r16, r3
     e04:	09 02       	muls	r16, r25
     e06:	00 01       	movw	r0, r0
     e08:	03 02       	muls	r16, r19
     e0a:	09 02       	muls	r16, r25
     e0c:	00 01       	movw	r0, r0
     e0e:	03 01       	movw	r0, r6
     e10:	09 04       	cpc	r0, r9
     e12:	00 01       	movw	r0, r0
     e14:	03 01       	movw	r0, r6
     e16:	09 02       	muls	r16, r25
     e18:	00 01       	movw	r0, r0
     e1a:	03 01       	movw	r0, r6
     e1c:	09 02       	muls	r16, r25
     e1e:	00 01       	movw	r0, r0
     e20:	03 03       	mulsu	r16, r19
     e22:	09 02       	muls	r16, r25
     e24:	00 01       	movw	r0, r0
     e26:	03 01       	movw	r0, r6
     e28:	09 02       	muls	r16, r25
     e2a:	00 01       	movw	r0, r0
     e2c:	03 04       	cpc	r0, r3
     e2e:	09 02       	muls	r16, r25
     e30:	00 01       	movw	r0, r0
     e32:	03 01       	movw	r0, r6
     e34:	09 02       	muls	r16, r25
     e36:	00 01       	movw	r0, r0
     e38:	03 01       	movw	r0, r6
     e3a:	09 02       	muls	r16, r25
     e3c:	00 01       	movw	r0, r0
     e3e:	03 0a       	sbc	r0, r19
     e40:	09 02       	muls	r16, r25
     e42:	00 01       	movw	r0, r0
     e44:	03 01       	movw	r0, r6
     e46:	09 02       	muls	r16, r25
     e48:	00 01       	movw	r0, r0
     e4a:	03 01       	movw	r0, r6
     e4c:	09 02       	muls	r16, r25
     e4e:	00 01       	movw	r0, r0
     e50:	03 01       	movw	r0, r6
     e52:	09 02       	muls	r16, r25
     e54:	00 01       	movw	r0, r0
     e56:	03 03       	mulsu	r16, r19
     e58:	09 02       	muls	r16, r25
     e5a:	00 01       	movw	r0, r0
     e5c:	03 01       	movw	r0, r6
     e5e:	09 02       	muls	r16, r25
     e60:	00 01       	movw	r0, r0
     e62:	03 03       	mulsu	r16, r19
     e64:	09 02       	muls	r16, r25
     e66:	00 01       	movw	r0, r0
     e68:	03 01       	movw	r0, r6
     e6a:	09 02       	muls	r16, r25
     e6c:	00 01       	movw	r0, r0
     e6e:	03 03       	mulsu	r16, r19
     e70:	09 02       	muls	r16, r25
     e72:	00 01       	movw	r0, r0
     e74:	03 01       	movw	r0, r6
     e76:	09 02       	muls	r16, r25
     e78:	00 01       	movw	r0, r0
     e7a:	03 03       	mulsu	r16, r19
     e7c:	09 02       	muls	r16, r25
     e7e:	00 01       	movw	r0, r0
     e80:	03 01       	movw	r0, r6
     e82:	09 02       	muls	r16, r25
     e84:	00 01       	movw	r0, r0
     e86:	03 03       	mulsu	r16, r19
     e88:	09 02       	muls	r16, r25
     e8a:	00 01       	movw	r0, r0
     e8c:	03 01       	movw	r0, r6
     e8e:	09 02       	muls	r16, r25
     e90:	00 01       	movw	r0, r0
     e92:	03 01       	movw	r0, r6
     e94:	09 02       	muls	r16, r25
     e96:	00 01       	movw	r0, r0
     e98:	03 01       	movw	r0, r6
     e9a:	09 02       	muls	r16, r25
     e9c:	00 01       	movw	r0, r0
     e9e:	03 15       	cp	r16, r3
     ea0:	09 02       	muls	r16, r25
     ea2:	00 01       	movw	r0, r0
     ea4:	03 01       	movw	r0, r6
     ea6:	09 02       	muls	r16, r25
     ea8:	00 01       	movw	r0, r0
     eaa:	03 04       	cpc	r0, r3
     eac:	09 02       	muls	r16, r25
     eae:	00 01       	movw	r0, r0
     eb0:	03 01       	movw	r0, r6
     eb2:	09 02       	muls	r16, r25
     eb4:	00 01       	movw	r0, r0
     eb6:	03 01       	movw	r0, r6
     eb8:	09 02       	muls	r16, r25
     eba:	00 01       	movw	r0, r0
     ebc:	03 01       	movw	r0, r6
     ebe:	09 02       	muls	r16, r25
     ec0:	00 01       	movw	r0, r0
     ec2:	03 06       	cpc	r0, r19
     ec4:	09 02       	muls	r16, r25
     ec6:	00 01       	movw	r0, r0
     ec8:	03 01       	movw	r0, r6
     eca:	09 02       	muls	r16, r25
     ecc:	00 01       	movw	r0, r0
     ece:	03 01       	movw	r0, r6
     ed0:	09 02       	muls	r16, r25
     ed2:	00 01       	movw	r0, r0
     ed4:	03 01       	movw	r0, r6
     ed6:	09 02       	muls	r16, r25
     ed8:	00 01       	movw	r0, r0
     eda:	03 03       	mulsu	r16, r19
     edc:	09 02       	muls	r16, r25
     ede:	00 01       	movw	r0, r0
     ee0:	03 01       	movw	r0, r6
     ee2:	09 02       	muls	r16, r25
     ee4:	00 01       	movw	r0, r0
     ee6:	03 01       	movw	r0, r6
     ee8:	09 02       	muls	r16, r25
     eea:	00 01       	movw	r0, r0
     eec:	03 01       	movw	r0, r6
     eee:	09 02       	muls	r16, r25
     ef0:	00 01       	movw	r0, r0
     ef2:	03 01       	movw	r0, r6
     ef4:	09 02       	muls	r16, r25
     ef6:	00 01       	movw	r0, r0
     ef8:	03 01       	movw	r0, r6
     efa:	09 02       	muls	r16, r25
     efc:	00 01       	movw	r0, r0
     efe:	03 04       	cpc	r0, r3
     f00:	09 02       	muls	r16, r25
     f02:	00 01       	movw	r0, r0
     f04:	03 01       	movw	r0, r6
     f06:	09 02       	muls	r16, r25
     f08:	00 01       	movw	r0, r0
     f0a:	03 01       	movw	r0, r6
     f0c:	09 02       	muls	r16, r25
     f0e:	00 01       	movw	r0, r0
     f10:	03 01       	movw	r0, r6
     f12:	09 02       	muls	r16, r25
     f14:	00 01       	movw	r0, r0
     f16:	03 02       	muls	r16, r19
     f18:	09 02       	muls	r16, r25
     f1a:	00 01       	movw	r0, r0
     f1c:	03 03       	mulsu	r16, r19
     f1e:	09 02       	muls	r16, r25
     f20:	00 01       	movw	r0, r0
     f22:	03 01       	movw	r0, r6
     f24:	09 02       	muls	r16, r25
     f26:	00 01       	movw	r0, r0
     f28:	03 0b       	sbc	r16, r19
     f2a:	09 02       	muls	r16, r25
     f2c:	00 01       	movw	r0, r0
     f2e:	03 01       	movw	r0, r6
     f30:	09 02       	muls	r16, r25
     f32:	00 01       	movw	r0, r0
     f34:	03 01       	movw	r0, r6
     f36:	09 02       	muls	r16, r25
     f38:	00 01       	movw	r0, r0
     f3a:	03 01       	movw	r0, r6
     f3c:	09 02       	muls	r16, r25
     f3e:	00 01       	movw	r0, r0
     f40:	03 03       	mulsu	r16, r19
     f42:	09 02       	muls	r16, r25
     f44:	00 01       	movw	r0, r0
     f46:	03 01       	movw	r0, r6
     f48:	09 02       	muls	r16, r25
     f4a:	00 01       	movw	r0, r0
     f4c:	03 01       	movw	r0, r6
     f4e:	09 02       	muls	r16, r25
     f50:	00 01       	movw	r0, r0
     f52:	03 01       	movw	r0, r6
     f54:	09 02       	muls	r16, r25
     f56:	00 01       	movw	r0, r0
     f58:	03 03       	mulsu	r16, r19
     f5a:	09 02       	muls	r16, r25
     f5c:	00 01       	movw	r0, r0
     f5e:	03 01       	movw	r0, r6
     f60:	09 02       	muls	r16, r25
     f62:	00 01       	movw	r0, r0
     f64:	03 03       	mulsu	r16, r19
     f66:	09 02       	muls	r16, r25
     f68:	00 01       	movw	r0, r0
     f6a:	03 01       	movw	r0, r6
     f6c:	09 02       	muls	r16, r25
     f6e:	00 01       	movw	r0, r0
     f70:	03 01       	movw	r0, r6
     f72:	09 02       	muls	r16, r25
     f74:	00 01       	movw	r0, r0
     f76:	03 01       	movw	r0, r6
     f78:	09 02       	muls	r16, r25
     f7a:	00 01       	movw	r0, r0
     f7c:	03 01       	movw	r0, r6
     f7e:	09 02       	muls	r16, r25
     f80:	00 01       	movw	r0, r0
     f82:	03 03       	mulsu	r16, r19
     f84:	09 02       	muls	r16, r25
     f86:	00 01       	movw	r0, r0
     f88:	03 01       	movw	r0, r6
     f8a:	09 02       	muls	r16, r25
     f8c:	00 01       	movw	r0, r0
     f8e:	03 02       	muls	r16, r19
     f90:	09 02       	muls	r16, r25
     f92:	00 01       	movw	r0, r0
     f94:	03 01       	movw	r0, r6
     f96:	09 02       	muls	r16, r25
     f98:	00 01       	movw	r0, r0
     f9a:	03 02       	muls	r16, r19
     f9c:	09 02       	muls	r16, r25
     f9e:	00 01       	movw	r0, r0
     fa0:	03 03       	mulsu	r16, r19
     fa2:	09 02       	muls	r16, r25
     fa4:	00 01       	movw	r0, r0
     fa6:	03 01       	movw	r0, r6
     fa8:	09 02       	muls	r16, r25
     faa:	00 01       	movw	r0, r0
     fac:	03 01       	movw	r0, r6
     fae:	09 02       	muls	r16, r25
     fb0:	00 01       	movw	r0, r0
     fb2:	03 01       	movw	r0, r6
     fb4:	09 02       	muls	r16, r25
     fb6:	00 01       	movw	r0, r0
     fb8:	03 02       	muls	r16, r19
     fba:	09 02       	muls	r16, r25
     fbc:	00 01       	movw	r0, r0
     fbe:	03 01       	movw	r0, r6
     fc0:	09 02       	muls	r16, r25
     fc2:	00 01       	movw	r0, r0
     fc4:	03 02       	muls	r16, r19
     fc6:	09 02       	muls	r16, r25
     fc8:	00 01       	movw	r0, r0
     fca:	03 01       	movw	r0, r6
     fcc:	09 02       	muls	r16, r25
     fce:	00 01       	movw	r0, r0
     fd0:	03 01       	movw	r0, r6
     fd2:	09 02       	muls	r16, r25
     fd4:	00 01       	movw	r0, r0
     fd6:	03 01       	movw	r0, r6
     fd8:	09 02       	muls	r16, r25
     fda:	00 01       	movw	r0, r0
     fdc:	03 03       	mulsu	r16, r19
     fde:	09 02       	muls	r16, r25
     fe0:	00 01       	movw	r0, r0
     fe2:	03 02       	muls	r16, r19
     fe4:	09 02       	muls	r16, r25
     fe6:	00 01       	movw	r0, r0
     fe8:	03 03       	mulsu	r16, r19
     fea:	09 02       	muls	r16, r25
     fec:	00 01       	movw	r0, r0
     fee:	03 01       	movw	r0, r6
     ff0:	09 02       	muls	r16, r25
     ff2:	00 01       	movw	r0, r0
     ff4:	03 01       	movw	r0, r6
     ff6:	09 02       	muls	r16, r25
     ff8:	00 01       	movw	r0, r0
     ffa:	03 03       	mulsu	r16, r19
     ffc:	09 02       	muls	r16, r25
     ffe:	00 01       	movw	r0, r0
    1000:	03 01       	movw	r0, r6
    1002:	09 02       	muls	r16, r25
    1004:	00 01       	movw	r0, r0
    1006:	03 01       	movw	r0, r6
    1008:	09 02       	muls	r16, r25
    100a:	00 01       	movw	r0, r0
    100c:	03 01       	movw	r0, r6
    100e:	09 02       	muls	r16, r25
    1010:	00 01       	movw	r0, r0
    1012:	03 03       	mulsu	r16, r19
    1014:	09 02       	muls	r16, r25
    1016:	00 01       	movw	r0, r0
    1018:	03 01       	movw	r0, r6
    101a:	09 02       	muls	r16, r25
    101c:	00 01       	movw	r0, r0
    101e:	03 01       	movw	r0, r6
    1020:	09 02       	muls	r16, r25
    1022:	00 01       	movw	r0, r0
    1024:	03 03       	mulsu	r16, r19
    1026:	09 02       	muls	r16, r25
    1028:	00 01       	movw	r0, r0
    102a:	03 01       	movw	r0, r6
    102c:	09 02       	muls	r16, r25
    102e:	00 01       	movw	r0, r0
    1030:	03 01       	movw	r0, r6
    1032:	09 02       	muls	r16, r25
    1034:	00 01       	movw	r0, r0
    1036:	03 01       	movw	r0, r6
    1038:	09 02       	muls	r16, r25
    103a:	00 01       	movw	r0, r0
    103c:	03 02       	muls	r16, r19
    103e:	09 02       	muls	r16, r25
    1040:	00 01       	movw	r0, r0
    1042:	03 03       	mulsu	r16, r19
    1044:	09 02       	muls	r16, r25
    1046:	00 01       	movw	r0, r0
    1048:	03 01       	movw	r0, r6
    104a:	09 02       	muls	r16, r25
    104c:	00 01       	movw	r0, r0
    104e:	03 01       	movw	r0, r6
    1050:	09 02       	muls	r16, r25
    1052:	00 01       	movw	r0, r0
    1054:	03 01       	movw	r0, r6
    1056:	09 02       	muls	r16, r25
    1058:	00 01       	movw	r0, r0
    105a:	03 01       	movw	r0, r6
    105c:	09 02       	muls	r16, r25
    105e:	00 01       	movw	r0, r0
    1060:	03 01       	movw	r0, r6
    1062:	09 02       	muls	r16, r25
    1064:	00 01       	movw	r0, r0
    1066:	03 01       	movw	r0, r6
    1068:	09 02       	muls	r16, r25
    106a:	00 01       	movw	r0, r0
    106c:	03 01       	movw	r0, r6
    106e:	09 02       	muls	r16, r25
    1070:	00 01       	movw	r0, r0
    1072:	03 01       	movw	r0, r6
    1074:	09 02       	muls	r16, r25
    1076:	00 01       	movw	r0, r0
    1078:	03 12       	cpse	r0, r19
    107a:	09 02       	muls	r16, r25
    107c:	00 01       	movw	r0, r0
    107e:	03 01       	movw	r0, r6
    1080:	09 02       	muls	r16, r25
    1082:	00 01       	movw	r0, r0
    1084:	03 02       	muls	r16, r19
    1086:	09 02       	muls	r16, r25
    1088:	00 01       	movw	r0, r0
    108a:	03 01       	movw	r0, r6
    108c:	09 02       	muls	r16, r25
    108e:	00 01       	movw	r0, r0
    1090:	03 02       	muls	r16, r19
    1092:	09 02       	muls	r16, r25
    1094:	00 01       	movw	r0, r0
    1096:	03 01       	movw	r0, r6
    1098:	09 02       	muls	r16, r25
    109a:	00 01       	movw	r0, r0
    109c:	03 02       	muls	r16, r19
    109e:	09 02       	muls	r16, r25
    10a0:	00 01       	movw	r0, r0
    10a2:	03 01       	movw	r0, r6
    10a4:	09 02       	muls	r16, r25
    10a6:	00 01       	movw	r0, r0
    10a8:	03 01       	movw	r0, r6
    10aa:	09 02       	muls	r16, r25
    10ac:	00 01       	movw	r0, r0
    10ae:	03 01       	movw	r0, r6
    10b0:	09 02       	muls	r16, r25
    10b2:	00 01       	movw	r0, r0
    10b4:	03 02       	muls	r16, r19
    10b6:	09 02       	muls	r16, r25
    10b8:	00 01       	movw	r0, r0
    10ba:	03 04       	cpc	r0, r3
    10bc:	09 02       	muls	r16, r25
    10be:	00 01       	movw	r0, r0
    10c0:	03 02       	muls	r16, r19
    10c2:	09 02       	muls	r16, r25
    10c4:	00 01       	movw	r0, r0
    10c6:	03 04       	cpc	r0, r3
    10c8:	09 02       	muls	r16, r25
    10ca:	00 01       	movw	r0, r0
    10cc:	03 01       	movw	r0, r6
    10ce:	09 02       	muls	r16, r25
    10d0:	00 01       	movw	r0, r0
    10d2:	03 06       	cpc	r0, r19
    10d4:	09 02       	muls	r16, r25
    10d6:	00 01       	movw	r0, r0
    10d8:	03 01       	movw	r0, r6
    10da:	09 02       	muls	r16, r25
    10dc:	00 01       	movw	r0, r0
    10de:	04 01       	movw	r0, r8
    10e0:	03 f9       	bld	r16, 3
    10e2:	7b 09       	sbc	r23, r11
    10e4:	02 00       	.word	0x0002	; ????
    10e6:	01 03       	mulsu	r16, r17
    10e8:	01 09       	sbc	r16, r1
    10ea:	02 00       	.word	0x0002	; ????
    10ec:	01 03       	mulsu	r16, r17
    10ee:	01 09       	sbc	r16, r1
    10f0:	02 00       	.word	0x0002	; ????
    10f2:	01 03       	mulsu	r16, r17
    10f4:	01 09       	sbc	r16, r1
    10f6:	02 00       	.word	0x0002	; ????
    10f8:	01 03       	mulsu	r16, r17
    10fa:	03 09       	sbc	r16, r3
    10fc:	02 00       	.word	0x0002	; ????
    10fe:	01 03       	mulsu	r16, r17
    1100:	03 09       	sbc	r16, r3
    1102:	02 00       	.word	0x0002	; ????
    1104:	01 03       	mulsu	r16, r17
    1106:	01 09       	sbc	r16, r1
    1108:	02 00       	.word	0x0002	; ????
    110a:	01 03       	mulsu	r16, r17
    110c:	04 09       	sbc	r16, r4
    110e:	02 00       	.word	0x0002	; ????
    1110:	01 03       	mulsu	r16, r17
    1112:	01 09       	sbc	r16, r1
    1114:	02 00       	.word	0x0002	; ????
    1116:	01 03       	mulsu	r16, r17
    1118:	03 09       	sbc	r16, r3
    111a:	02 00       	.word	0x0002	; ????
    111c:	01 03       	mulsu	r16, r17
    111e:	02 09       	sbc	r16, r2
    1120:	02 00       	.word	0x0002	; ????
    1122:	01 03       	mulsu	r16, r17
    1124:	02 09       	sbc	r16, r2
    1126:	02 00       	.word	0x0002	; ????
    1128:	01 03       	mulsu	r16, r17
    112a:	03 09       	sbc	r16, r3
    112c:	02 00       	.word	0x0002	; ????
    112e:	01 03       	mulsu	r16, r17
    1130:	01 09       	sbc	r16, r1
    1132:	02 00       	.word	0x0002	; ????
    1134:	01 03       	mulsu	r16, r17
    1136:	01 09       	sbc	r16, r1
    1138:	02 00       	.word	0x0002	; ????
    113a:	01 03       	mulsu	r16, r17
    113c:	01 09       	sbc	r16, r1
    113e:	02 00       	.word	0x0002	; ????
    1140:	01 03       	mulsu	r16, r17
    1142:	01 09       	sbc	r16, r1
    1144:	02 00       	.word	0x0002	; ????
    1146:	01 03       	mulsu	r16, r17
    1148:	04 09       	sbc	r16, r4
    114a:	02 00       	.word	0x0002	; ????
    114c:	01 03       	mulsu	r16, r17
    114e:	01 09       	sbc	r16, r1
    1150:	02 00       	.word	0x0002	; ????
    1152:	01 03       	mulsu	r16, r17
    1154:	03 09       	sbc	r16, r3
    1156:	02 00       	.word	0x0002	; ????
    1158:	01 03       	mulsu	r16, r17
    115a:	01 09       	sbc	r16, r1
    115c:	02 00       	.word	0x0002	; ????
    115e:	01 03       	mulsu	r16, r17
    1160:	02 09       	sbc	r16, r2
    1162:	02 00       	.word	0x0002	; ????
    1164:	01 03       	mulsu	r16, r17
    1166:	02 09       	sbc	r16, r2
    1168:	02 00       	.word	0x0002	; ????
    116a:	01 03       	mulsu	r16, r17
    116c:	01 09       	sbc	r16, r1
    116e:	02 00       	.word	0x0002	; ????
    1170:	01 03       	mulsu	r16, r17
    1172:	01 09       	sbc	r16, r1
    1174:	02 00       	.word	0x0002	; ????
    1176:	01 03       	mulsu	r16, r17
    1178:	01 09       	sbc	r16, r1
    117a:	02 00       	.word	0x0002	; ????
    117c:	01 03       	mulsu	r16, r17
    117e:	03 09       	sbc	r16, r3
    1180:	02 00       	.word	0x0002	; ????
    1182:	01 03       	mulsu	r16, r17
    1184:	01 09       	sbc	r16, r1
    1186:	02 00       	.word	0x0002	; ????
    1188:	01 03       	mulsu	r16, r17
    118a:	01 09       	sbc	r16, r1
    118c:	02 00       	.word	0x0002	; ????
    118e:	01 03       	mulsu	r16, r17
    1190:	01 09       	sbc	r16, r1
    1192:	02 00       	.word	0x0002	; ????
    1194:	01 03       	mulsu	r16, r17
    1196:	01 09       	sbc	r16, r1
    1198:	02 00       	.word	0x0002	; ????
    119a:	01 03       	mulsu	r16, r17
    119c:	01 09       	sbc	r16, r1
    119e:	02 00       	.word	0x0002	; ????
    11a0:	01 03       	mulsu	r16, r17
    11a2:	01 09       	sbc	r16, r1
    11a4:	02 00       	.word	0x0002	; ????
    11a6:	01 03       	mulsu	r16, r17
    11a8:	01 09       	sbc	r16, r1
    11aa:	02 00       	.word	0x0002	; ????
    11ac:	01 03       	mulsu	r16, r17
    11ae:	01 09       	sbc	r16, r1
    11b0:	02 00       	.word	0x0002	; ????
    11b2:	01 03       	mulsu	r16, r17
    11b4:	03 09       	sbc	r16, r3
    11b6:	02 00       	.word	0x0002	; ????
    11b8:	01 03       	mulsu	r16, r17
    11ba:	02 09       	sbc	r16, r2
    11bc:	02 00       	.word	0x0002	; ????
    11be:	01 03       	mulsu	r16, r17
    11c0:	01 09       	sbc	r16, r1
    11c2:	02 00       	.word	0x0002	; ????
    11c4:	01 03       	mulsu	r16, r17
    11c6:	01 09       	sbc	r16, r1
    11c8:	02 00       	.word	0x0002	; ????
    11ca:	01 03       	mulsu	r16, r17
    11cc:	07 09       	sbc	r16, r7
    11ce:	02 00       	.word	0x0002	; ????
    11d0:	01 03       	mulsu	r16, r17
    11d2:	01 09       	sbc	r16, r1
    11d4:	02 00       	.word	0x0002	; ????
    11d6:	01 03       	mulsu	r16, r17
    11d8:	01 09       	sbc	r16, r1
    11da:	02 00       	.word	0x0002	; ????
    11dc:	01 03       	mulsu	r16, r17
    11de:	01 09       	sbc	r16, r1
    11e0:	02 00       	.word	0x0002	; ????
    11e2:	01 03       	mulsu	r16, r17
    11e4:	01 09       	sbc	r16, r1
    11e6:	02 00       	.word	0x0002	; ????
    11e8:	01 03       	mulsu	r16, r17
    11ea:	01 09       	sbc	r16, r1
    11ec:	02 00       	.word	0x0002	; ????
    11ee:	01 03       	mulsu	r16, r17
    11f0:	03 09       	sbc	r16, r3
    11f2:	02 00       	.word	0x0002	; ????
    11f4:	01 03       	mulsu	r16, r17
    11f6:	03 09       	sbc	r16, r3
    11f8:	02 00       	.word	0x0002	; ????
    11fa:	01 03       	mulsu	r16, r17
    11fc:	01 09       	sbc	r16, r1
    11fe:	02 00       	.word	0x0002	; ????
    1200:	01 03       	mulsu	r16, r17
    1202:	03 09       	sbc	r16, r3
    1204:	02 00       	.word	0x0002	; ????
    1206:	01 03       	mulsu	r16, r17
    1208:	04 09       	sbc	r16, r4
    120a:	02 00       	.word	0x0002	; ????
    120c:	01 03       	mulsu	r16, r17
    120e:	02 09       	sbc	r16, r2
    1210:	02 00       	.word	0x0002	; ????
    1212:	01 03       	mulsu	r16, r17
    1214:	01 09       	sbc	r16, r1
    1216:	02 00       	.word	0x0002	; ????
    1218:	01 03       	mulsu	r16, r17
    121a:	01 09       	sbc	r16, r1
    121c:	02 00       	.word	0x0002	; ????
    121e:	01 03       	mulsu	r16, r17
    1220:	01 09       	sbc	r16, r1
    1222:	02 00       	.word	0x0002	; ????
    1224:	01 03       	mulsu	r16, r17
    1226:	02 09       	sbc	r16, r2
    1228:	02 00       	.word	0x0002	; ????
    122a:	01 03       	mulsu	r16, r17
    122c:	03 09       	sbc	r16, r3
    122e:	02 00       	.word	0x0002	; ????
    1230:	01 03       	mulsu	r16, r17
    1232:	01 09       	sbc	r16, r1
    1234:	02 00       	.word	0x0002	; ????
    1236:	01 03       	mulsu	r16, r17
    1238:	02 09       	sbc	r16, r2
    123a:	02 00       	.word	0x0002	; ????
    123c:	01 03       	mulsu	r16, r17
    123e:	01 09       	sbc	r16, r1
    1240:	02 00       	.word	0x0002	; ????
    1242:	01 03       	mulsu	r16, r17
    1244:	02 09       	sbc	r16, r2
    1246:	02 00       	.word	0x0002	; ????
    1248:	01 03       	mulsu	r16, r17
    124a:	04 09       	sbc	r16, r4
    124c:	02 00       	.word	0x0002	; ????
    124e:	01 03       	mulsu	r16, r17
    1250:	01 09       	sbc	r16, r1
    1252:	02 00       	.word	0x0002	; ????
    1254:	01 03       	mulsu	r16, r17
    1256:	02 09       	sbc	r16, r2
    1258:	02 00       	.word	0x0002	; ????
    125a:	01 03       	mulsu	r16, r17
    125c:	01 09       	sbc	r16, r1
    125e:	02 00       	.word	0x0002	; ????
    1260:	01 03       	mulsu	r16, r17
    1262:	02 09       	sbc	r16, r2
    1264:	02 00       	.word	0x0002	; ????
    1266:	01 03       	mulsu	r16, r17
    1268:	05 09       	sbc	r16, r5
    126a:	02 00       	.word	0x0002	; ????
    126c:	01 03       	mulsu	r16, r17
    126e:	01 09       	sbc	r16, r1
    1270:	02 00       	.word	0x0002	; ????
    1272:	01 03       	mulsu	r16, r17
    1274:	01 09       	sbc	r16, r1
    1276:	02 00       	.word	0x0002	; ????
    1278:	01 03       	mulsu	r16, r17
    127a:	01 09       	sbc	r16, r1
    127c:	02 00       	.word	0x0002	; ????
    127e:	01 03       	mulsu	r16, r17
    1280:	0a 09       	sbc	r16, r10
    1282:	02 00       	.word	0x0002	; ????
    1284:	01 03       	mulsu	r16, r17
    1286:	02 09       	sbc	r16, r2
    1288:	02 00       	.word	0x0002	; ????
    128a:	01 03       	mulsu	r16, r17
    128c:	02 09       	sbc	r16, r2
    128e:	02 00       	.word	0x0002	; ????
    1290:	01 03       	mulsu	r16, r17
    1292:	01 09       	sbc	r16, r1
    1294:	02 00       	.word	0x0002	; ????
    1296:	01 03       	mulsu	r16, r17
    1298:	01 09       	sbc	r16, r1
    129a:	02 00       	.word	0x0002	; ????
    129c:	01 03       	mulsu	r16, r17
    129e:	01 09       	sbc	r16, r1
    12a0:	02 00       	.word	0x0002	; ????
    12a2:	01 03       	mulsu	r16, r17
    12a4:	01 09       	sbc	r16, r1
    12a6:	02 00       	.word	0x0002	; ????
    12a8:	01 03       	mulsu	r16, r17
    12aa:	01 09       	sbc	r16, r1
    12ac:	02 00       	.word	0x0002	; ????
    12ae:	01 03       	mulsu	r16, r17
    12b0:	01 09       	sbc	r16, r1
    12b2:	02 00       	.word	0x0002	; ????
    12b4:	01 03       	mulsu	r16, r17
    12b6:	04 09       	sbc	r16, r4
    12b8:	02 00       	.word	0x0002	; ????
    12ba:	01 03       	mulsu	r16, r17
    12bc:	01 09       	sbc	r16, r1
    12be:	02 00       	.word	0x0002	; ????
    12c0:	01 03       	mulsu	r16, r17
    12c2:	01 09       	sbc	r16, r1
    12c4:	02 00       	.word	0x0002	; ????
    12c6:	01 03       	mulsu	r16, r17
    12c8:	01 09       	sbc	r16, r1
    12ca:	02 00       	.word	0x0002	; ????
    12cc:	01 03       	mulsu	r16, r17
    12ce:	01 09       	sbc	r16, r1
    12d0:	02 00       	.word	0x0002	; ????
    12d2:	01 03       	mulsu	r16, r17
    12d4:	01 09       	sbc	r16, r1
    12d6:	02 00       	.word	0x0002	; ????
    12d8:	01 03       	mulsu	r16, r17
    12da:	01 09       	sbc	r16, r1
    12dc:	02 00       	.word	0x0002	; ????
    12de:	01 03       	mulsu	r16, r17
    12e0:	01 09       	sbc	r16, r1
    12e2:	02 00       	.word	0x0002	; ????
    12e4:	01 03       	mulsu	r16, r17
    12e6:	01 09       	sbc	r16, r1
    12e8:	02 00       	.word	0x0002	; ????
    12ea:	01 03       	mulsu	r16, r17
    12ec:	03 09       	sbc	r16, r3
    12ee:	02 00       	.word	0x0002	; ????
    12f0:	01 03       	mulsu	r16, r17
    12f2:	01 09       	sbc	r16, r1
    12f4:	02 00       	.word	0x0002	; ????
    12f6:	01 03       	mulsu	r16, r17
    12f8:	01 09       	sbc	r16, r1
    12fa:	02 00       	.word	0x0002	; ????
    12fc:	01 03       	mulsu	r16, r17
    12fe:	02 09       	sbc	r16, r2
    1300:	02 00       	.word	0x0002	; ????
    1302:	01 03       	mulsu	r16, r17
    1304:	01 09       	sbc	r16, r1
    1306:	02 00       	.word	0x0002	; ????
    1308:	01 03       	mulsu	r16, r17
    130a:	01 09       	sbc	r16, r1
    130c:	02 00       	.word	0x0002	; ????
    130e:	01 03       	mulsu	r16, r17
    1310:	03 09       	sbc	r16, r3
    1312:	02 00       	.word	0x0002	; ????
    1314:	01 03       	mulsu	r16, r17
    1316:	01 09       	sbc	r16, r1
    1318:	02 00       	.word	0x0002	; ????
    131a:	01 03       	mulsu	r16, r17
    131c:	01 09       	sbc	r16, r1
    131e:	02 00       	.word	0x0002	; ????
    1320:	01 03       	mulsu	r16, r17
    1322:	01 09       	sbc	r16, r1
    1324:	02 00       	.word	0x0002	; ????
    1326:	01 03       	mulsu	r16, r17
    1328:	01 09       	sbc	r16, r1
    132a:	02 00       	.word	0x0002	; ????
    132c:	01 03       	mulsu	r16, r17
    132e:	01 09       	sbc	r16, r1
    1330:	02 00       	.word	0x0002	; ????
    1332:	01 03       	mulsu	r16, r17
    1334:	02 09       	sbc	r16, r2
    1336:	02 00       	.word	0x0002	; ????
    1338:	01 03       	mulsu	r16, r17
    133a:	01 09       	sbc	r16, r1
    133c:	02 00       	.word	0x0002	; ????
    133e:	01 03       	mulsu	r16, r17
    1340:	01 09       	sbc	r16, r1
    1342:	02 00       	.word	0x0002	; ????
    1344:	01 03       	mulsu	r16, r17
    1346:	01 09       	sbc	r16, r1
    1348:	02 00       	.word	0x0002	; ????
    134a:	01 03       	mulsu	r16, r17
    134c:	03 09       	sbc	r16, r3
    134e:	02 00       	.word	0x0002	; ????
    1350:	01 09       	sbc	r16, r1
    1352:	02 00       	.word	0x0002	; ????
    1354:	00 01       	movw	r0, r0
    1356:	01 00       	Address 0x00001356 is out of bounds.
.word	0xffff	; ????
